ARM GAS  /tmp/ccMc6RPV.s 			page 1


   1              		.cpu cortex-m0
   2              		.eabi_attribute 20, 1
   3              		.eabi_attribute 21, 1
   4              		.eabi_attribute 23, 3
   5              		.eabi_attribute 24, 1
   6              		.eabi_attribute 25, 1
   7              		.eabi_attribute 26, 1
   8              		.eabi_attribute 30, 1
   9              		.eabi_attribute 34, 0
  10              		.eabi_attribute 18, 4
  11              		.file	"stm32f0xx_hal_crc.c"
  12              		.text
  13              	.Ltext0:
  14              		.cfi_sections	.debug_frame
  15              		.section	.text.CRC_Handle_8,"ax",%progbits
  16              		.align	1
  17              		.arch armv6s-m
  18              		.syntax unified
  19              		.code	16
  20              		.thumb_func
  21              		.fpu softvfp
  23              	CRC_Handle_8:
  24              	.LVL0:
  25              	.LFB44:
  26              		.file 1 "Drivers/STM32F0xx_HAL_Driver/Src/stm32f0xx_hal_crc.c"
   1:Drivers/STM32F0xx_HAL_Driver/Src/stm32f0xx_hal_crc.c **** /**
   2:Drivers/STM32F0xx_HAL_Driver/Src/stm32f0xx_hal_crc.c ****   ******************************************************************************
   3:Drivers/STM32F0xx_HAL_Driver/Src/stm32f0xx_hal_crc.c ****   * @file    stm32f0xx_hal_crc.c
   4:Drivers/STM32F0xx_HAL_Driver/Src/stm32f0xx_hal_crc.c ****   * @author  MCD Application Team
   5:Drivers/STM32F0xx_HAL_Driver/Src/stm32f0xx_hal_crc.c ****   * @brief   CRC HAL module driver.
   6:Drivers/STM32F0xx_HAL_Driver/Src/stm32f0xx_hal_crc.c ****   *          This file provides firmware functions to manage the following 
   7:Drivers/STM32F0xx_HAL_Driver/Src/stm32f0xx_hal_crc.c ****   *          functionalities of the Cyclic Redundancy Check (CRC) peripheral:
   8:Drivers/STM32F0xx_HAL_Driver/Src/stm32f0xx_hal_crc.c ****   *           + Initialization and de-initialization functions
   9:Drivers/STM32F0xx_HAL_Driver/Src/stm32f0xx_hal_crc.c ****   *           + Peripheral Control functions 
  10:Drivers/STM32F0xx_HAL_Driver/Src/stm32f0xx_hal_crc.c ****   *           + Peripheral State functions
  11:Drivers/STM32F0xx_HAL_Driver/Src/stm32f0xx_hal_crc.c ****   *         
  12:Drivers/STM32F0xx_HAL_Driver/Src/stm32f0xx_hal_crc.c ****   @verbatim
  13:Drivers/STM32F0xx_HAL_Driver/Src/stm32f0xx_hal_crc.c ****  ===============================================================================
  14:Drivers/STM32F0xx_HAL_Driver/Src/stm32f0xx_hal_crc.c ****                      ##### How to use this driver #####
  15:Drivers/STM32F0xx_HAL_Driver/Src/stm32f0xx_hal_crc.c ****  ===============================================================================
  16:Drivers/STM32F0xx_HAL_Driver/Src/stm32f0xx_hal_crc.c ****     [..]
  17:Drivers/STM32F0xx_HAL_Driver/Src/stm32f0xx_hal_crc.c ****          (+) Enable CRC AHB clock using __HAL_RCC_CRC_CLK_ENABLE();
  18:Drivers/STM32F0xx_HAL_Driver/Src/stm32f0xx_hal_crc.c ****          (+) Initialize CRC calculator
  19:Drivers/STM32F0xx_HAL_Driver/Src/stm32f0xx_hal_crc.c ****              (++)specify generating polynomial (IP default or non-default one)
  20:Drivers/STM32F0xx_HAL_Driver/Src/stm32f0xx_hal_crc.c ****              (++)specify initialization value (IP default or non-default one)
  21:Drivers/STM32F0xx_HAL_Driver/Src/stm32f0xx_hal_crc.c ****              (++)specify input data format
  22:Drivers/STM32F0xx_HAL_Driver/Src/stm32f0xx_hal_crc.c ****              (++)specify input or output data inversion mode if any
  23:Drivers/STM32F0xx_HAL_Driver/Src/stm32f0xx_hal_crc.c ****          (+) Use HAL_CRC_Accumulate() function to compute the CRC value of the 
  24:Drivers/STM32F0xx_HAL_Driver/Src/stm32f0xx_hal_crc.c ****              input data buffer starting with the previously computed CRC as 
  25:Drivers/STM32F0xx_HAL_Driver/Src/stm32f0xx_hal_crc.c ****              initialization value
  26:Drivers/STM32F0xx_HAL_Driver/Src/stm32f0xx_hal_crc.c ****          (+) Use HAL_CRC_Calculate() function to compute the CRC value of the 
  27:Drivers/STM32F0xx_HAL_Driver/Src/stm32f0xx_hal_crc.c ****              input data buffer starting with the defined initialization value 
  28:Drivers/STM32F0xx_HAL_Driver/Src/stm32f0xx_hal_crc.c ****              (default or non-default) to initiate CRC calculation
  29:Drivers/STM32F0xx_HAL_Driver/Src/stm32f0xx_hal_crc.c **** 
  30:Drivers/STM32F0xx_HAL_Driver/Src/stm32f0xx_hal_crc.c ****   @endverbatim
  31:Drivers/STM32F0xx_HAL_Driver/Src/stm32f0xx_hal_crc.c ****   ******************************************************************************
  32:Drivers/STM32F0xx_HAL_Driver/Src/stm32f0xx_hal_crc.c ****   * @attention
ARM GAS  /tmp/ccMc6RPV.s 			page 2


  33:Drivers/STM32F0xx_HAL_Driver/Src/stm32f0xx_hal_crc.c ****   *
  34:Drivers/STM32F0xx_HAL_Driver/Src/stm32f0xx_hal_crc.c ****   * <h2><center>&copy; COPYRIGHT(c) 2016 STMicroelectronics</center></h2>
  35:Drivers/STM32F0xx_HAL_Driver/Src/stm32f0xx_hal_crc.c ****   *
  36:Drivers/STM32F0xx_HAL_Driver/Src/stm32f0xx_hal_crc.c ****   * Redistribution and use in source and binary forms, with or without modification,
  37:Drivers/STM32F0xx_HAL_Driver/Src/stm32f0xx_hal_crc.c ****   * are permitted provided that the following conditions are met:
  38:Drivers/STM32F0xx_HAL_Driver/Src/stm32f0xx_hal_crc.c ****   *   1. Redistributions of source code must retain the above copyright notice,
  39:Drivers/STM32F0xx_HAL_Driver/Src/stm32f0xx_hal_crc.c ****   *      this list of conditions and the following disclaimer.
  40:Drivers/STM32F0xx_HAL_Driver/Src/stm32f0xx_hal_crc.c ****   *   2. Redistributions in binary form must reproduce the above copyright notice,
  41:Drivers/STM32F0xx_HAL_Driver/Src/stm32f0xx_hal_crc.c ****   *      this list of conditions and the following disclaimer in the documentation
  42:Drivers/STM32F0xx_HAL_Driver/Src/stm32f0xx_hal_crc.c ****   *      and/or other materials provided with the distribution.
  43:Drivers/STM32F0xx_HAL_Driver/Src/stm32f0xx_hal_crc.c ****   *   3. Neither the name of STMicroelectronics nor the names of its contributors
  44:Drivers/STM32F0xx_HAL_Driver/Src/stm32f0xx_hal_crc.c ****   *      may be used to endorse or promote products derived from this software
  45:Drivers/STM32F0xx_HAL_Driver/Src/stm32f0xx_hal_crc.c ****   *      without specific prior written permission.
  46:Drivers/STM32F0xx_HAL_Driver/Src/stm32f0xx_hal_crc.c ****   *
  47:Drivers/STM32F0xx_HAL_Driver/Src/stm32f0xx_hal_crc.c ****   * THIS SOFTWARE IS PROVIDED BY THE COPYRIGHT HOLDERS AND CONTRIBUTORS "AS IS"
  48:Drivers/STM32F0xx_HAL_Driver/Src/stm32f0xx_hal_crc.c ****   * AND ANY EXPRESS OR IMPLIED WARRANTIES, INCLUDING, BUT NOT LIMITED TO, THE
  49:Drivers/STM32F0xx_HAL_Driver/Src/stm32f0xx_hal_crc.c ****   * IMPLIED WARRANTIES OF MERCHANTABILITY AND FITNESS FOR A PARTICULAR PURPOSE ARE
  50:Drivers/STM32F0xx_HAL_Driver/Src/stm32f0xx_hal_crc.c ****   * DISCLAIMED. IN NO EVENT SHALL THE COPYRIGHT HOLDER OR CONTRIBUTORS BE LIABLE
  51:Drivers/STM32F0xx_HAL_Driver/Src/stm32f0xx_hal_crc.c ****   * FOR ANY DIRECT, INDIRECT, INCIDENTAL, SPECIAL, EXEMPLARY, OR CONSEQUENTIAL
  52:Drivers/STM32F0xx_HAL_Driver/Src/stm32f0xx_hal_crc.c ****   * DAMAGES (INCLUDING, BUT NOT LIMITED TO, PROCUREMENT OF SUBSTITUTE GOODS OR
  53:Drivers/STM32F0xx_HAL_Driver/Src/stm32f0xx_hal_crc.c ****   * SERVICES; LOSS OF USE, DATA, OR PROFITS; OR BUSINESS INTERRUPTION) HOWEVER
  54:Drivers/STM32F0xx_HAL_Driver/Src/stm32f0xx_hal_crc.c ****   * CAUSED AND ON ANY THEORY OF LIABILITY, WHETHER IN CONTRACT, STRICT LIABILITY,
  55:Drivers/STM32F0xx_HAL_Driver/Src/stm32f0xx_hal_crc.c ****   * OR TORT (INCLUDING NEGLIGENCE OR OTHERWISE) ARISING IN ANY WAY OUT OF THE USE
  56:Drivers/STM32F0xx_HAL_Driver/Src/stm32f0xx_hal_crc.c ****   * OF THIS SOFTWARE, EVEN IF ADVISED OF THE POSSIBILITY OF SUCH DAMAGE.
  57:Drivers/STM32F0xx_HAL_Driver/Src/stm32f0xx_hal_crc.c ****   *
  58:Drivers/STM32F0xx_HAL_Driver/Src/stm32f0xx_hal_crc.c ****   ******************************************************************************
  59:Drivers/STM32F0xx_HAL_Driver/Src/stm32f0xx_hal_crc.c ****   */
  60:Drivers/STM32F0xx_HAL_Driver/Src/stm32f0xx_hal_crc.c **** 
  61:Drivers/STM32F0xx_HAL_Driver/Src/stm32f0xx_hal_crc.c **** /* Includes ------------------------------------------------------------------*/
  62:Drivers/STM32F0xx_HAL_Driver/Src/stm32f0xx_hal_crc.c **** #include "stm32f0xx_hal.h"
  63:Drivers/STM32F0xx_HAL_Driver/Src/stm32f0xx_hal_crc.c **** 
  64:Drivers/STM32F0xx_HAL_Driver/Src/stm32f0xx_hal_crc.c **** /** @addtogroup STM32F0xx_HAL_Driver
  65:Drivers/STM32F0xx_HAL_Driver/Src/stm32f0xx_hal_crc.c ****   * @{
  66:Drivers/STM32F0xx_HAL_Driver/Src/stm32f0xx_hal_crc.c ****   */
  67:Drivers/STM32F0xx_HAL_Driver/Src/stm32f0xx_hal_crc.c **** 
  68:Drivers/STM32F0xx_HAL_Driver/Src/stm32f0xx_hal_crc.c **** /** @defgroup CRC CRC
  69:Drivers/STM32F0xx_HAL_Driver/Src/stm32f0xx_hal_crc.c ****   * @brief CRC HAL module driver.
  70:Drivers/STM32F0xx_HAL_Driver/Src/stm32f0xx_hal_crc.c ****   * @{
  71:Drivers/STM32F0xx_HAL_Driver/Src/stm32f0xx_hal_crc.c ****   */
  72:Drivers/STM32F0xx_HAL_Driver/Src/stm32f0xx_hal_crc.c **** 
  73:Drivers/STM32F0xx_HAL_Driver/Src/stm32f0xx_hal_crc.c **** #ifdef HAL_CRC_MODULE_ENABLED
  74:Drivers/STM32F0xx_HAL_Driver/Src/stm32f0xx_hal_crc.c **** 
  75:Drivers/STM32F0xx_HAL_Driver/Src/stm32f0xx_hal_crc.c **** /* Private typedef -----------------------------------------------------------*/
  76:Drivers/STM32F0xx_HAL_Driver/Src/stm32f0xx_hal_crc.c **** /* Private define ------------------------------------------------------------*/
  77:Drivers/STM32F0xx_HAL_Driver/Src/stm32f0xx_hal_crc.c **** /* Private macro -------------------------------------------------------------*/
  78:Drivers/STM32F0xx_HAL_Driver/Src/stm32f0xx_hal_crc.c **** /* Private variables ---------------------------------------------------------*/
  79:Drivers/STM32F0xx_HAL_Driver/Src/stm32f0xx_hal_crc.c **** /* Private function prototypes -----------------------------------------------*/
  80:Drivers/STM32F0xx_HAL_Driver/Src/stm32f0xx_hal_crc.c **** /** @defgroup CRC_Private_Functions CRC Private Functions
  81:Drivers/STM32F0xx_HAL_Driver/Src/stm32f0xx_hal_crc.c ****   * @{
  82:Drivers/STM32F0xx_HAL_Driver/Src/stm32f0xx_hal_crc.c ****   */
  83:Drivers/STM32F0xx_HAL_Driver/Src/stm32f0xx_hal_crc.c **** static uint32_t CRC_Handle_8(CRC_HandleTypeDef *hcrc, uint8_t pBuffer[], uint32_t BufferLength);
  84:Drivers/STM32F0xx_HAL_Driver/Src/stm32f0xx_hal_crc.c **** static uint32_t CRC_Handle_16(CRC_HandleTypeDef *hcrc, uint16_t pBuffer[], uint32_t BufferLength);
  85:Drivers/STM32F0xx_HAL_Driver/Src/stm32f0xx_hal_crc.c **** /**
  86:Drivers/STM32F0xx_HAL_Driver/Src/stm32f0xx_hal_crc.c ****   * @}
  87:Drivers/STM32F0xx_HAL_Driver/Src/stm32f0xx_hal_crc.c ****   */
  88:Drivers/STM32F0xx_HAL_Driver/Src/stm32f0xx_hal_crc.c **** 
  89:Drivers/STM32F0xx_HAL_Driver/Src/stm32f0xx_hal_crc.c **** /* Exported functions --------------------------------------------------------*/
ARM GAS  /tmp/ccMc6RPV.s 			page 3


  90:Drivers/STM32F0xx_HAL_Driver/Src/stm32f0xx_hal_crc.c **** 
  91:Drivers/STM32F0xx_HAL_Driver/Src/stm32f0xx_hal_crc.c **** /** @defgroup CRC_Exported_Functions CRC Exported Functions
  92:Drivers/STM32F0xx_HAL_Driver/Src/stm32f0xx_hal_crc.c ****   * @{
  93:Drivers/STM32F0xx_HAL_Driver/Src/stm32f0xx_hal_crc.c ****   */
  94:Drivers/STM32F0xx_HAL_Driver/Src/stm32f0xx_hal_crc.c **** 
  95:Drivers/STM32F0xx_HAL_Driver/Src/stm32f0xx_hal_crc.c **** /** @defgroup CRC_Exported_Functions_Group1 Initialization/de-initialization functions
  96:Drivers/STM32F0xx_HAL_Driver/Src/stm32f0xx_hal_crc.c ****  *  @brief    Initialization and Configuration functions. 
  97:Drivers/STM32F0xx_HAL_Driver/Src/stm32f0xx_hal_crc.c ****  *
  98:Drivers/STM32F0xx_HAL_Driver/Src/stm32f0xx_hal_crc.c **** @verbatim    
  99:Drivers/STM32F0xx_HAL_Driver/Src/stm32f0xx_hal_crc.c ****  ===============================================================================
 100:Drivers/STM32F0xx_HAL_Driver/Src/stm32f0xx_hal_crc.c ****             ##### Initialization and de-initialization functions #####
 101:Drivers/STM32F0xx_HAL_Driver/Src/stm32f0xx_hal_crc.c ****  ===============================================================================
 102:Drivers/STM32F0xx_HAL_Driver/Src/stm32f0xx_hal_crc.c ****     [..]  This section provides functions allowing to:
 103:Drivers/STM32F0xx_HAL_Driver/Src/stm32f0xx_hal_crc.c ****       (+) Initialize the CRC according to the specified parameters 
 104:Drivers/STM32F0xx_HAL_Driver/Src/stm32f0xx_hal_crc.c ****           in the CRC_InitTypeDef and create the associated handle
 105:Drivers/STM32F0xx_HAL_Driver/Src/stm32f0xx_hal_crc.c ****       (+) DeInitialize the CRC peripheral
 106:Drivers/STM32F0xx_HAL_Driver/Src/stm32f0xx_hal_crc.c ****       (+) Initialize the CRC MSP (MCU Specific Package)
 107:Drivers/STM32F0xx_HAL_Driver/Src/stm32f0xx_hal_crc.c ****       (+) DeInitialize the CRC MSP
 108:Drivers/STM32F0xx_HAL_Driver/Src/stm32f0xx_hal_crc.c ****  
 109:Drivers/STM32F0xx_HAL_Driver/Src/stm32f0xx_hal_crc.c **** @endverbatim
 110:Drivers/STM32F0xx_HAL_Driver/Src/stm32f0xx_hal_crc.c ****   * @{
 111:Drivers/STM32F0xx_HAL_Driver/Src/stm32f0xx_hal_crc.c ****   */
 112:Drivers/STM32F0xx_HAL_Driver/Src/stm32f0xx_hal_crc.c **** 
 113:Drivers/STM32F0xx_HAL_Driver/Src/stm32f0xx_hal_crc.c **** /**
 114:Drivers/STM32F0xx_HAL_Driver/Src/stm32f0xx_hal_crc.c ****   * @brief  Initialize the CRC according to the specified
 115:Drivers/STM32F0xx_HAL_Driver/Src/stm32f0xx_hal_crc.c ****   *         parameters in the CRC_InitTypeDef and initialize the associated handle.
 116:Drivers/STM32F0xx_HAL_Driver/Src/stm32f0xx_hal_crc.c ****   * @param  hcrc CRC handle
 117:Drivers/STM32F0xx_HAL_Driver/Src/stm32f0xx_hal_crc.c ****   * @retval HAL status
 118:Drivers/STM32F0xx_HAL_Driver/Src/stm32f0xx_hal_crc.c ****   */
 119:Drivers/STM32F0xx_HAL_Driver/Src/stm32f0xx_hal_crc.c **** HAL_StatusTypeDef HAL_CRC_Init(CRC_HandleTypeDef *hcrc)
 120:Drivers/STM32F0xx_HAL_Driver/Src/stm32f0xx_hal_crc.c **** {
 121:Drivers/STM32F0xx_HAL_Driver/Src/stm32f0xx_hal_crc.c ****   /* Check the CRC handle allocation */
 122:Drivers/STM32F0xx_HAL_Driver/Src/stm32f0xx_hal_crc.c ****   if(hcrc == NULL)
 123:Drivers/STM32F0xx_HAL_Driver/Src/stm32f0xx_hal_crc.c ****   {
 124:Drivers/STM32F0xx_HAL_Driver/Src/stm32f0xx_hal_crc.c ****     return HAL_ERROR;
 125:Drivers/STM32F0xx_HAL_Driver/Src/stm32f0xx_hal_crc.c ****   }
 126:Drivers/STM32F0xx_HAL_Driver/Src/stm32f0xx_hal_crc.c ****   
 127:Drivers/STM32F0xx_HAL_Driver/Src/stm32f0xx_hal_crc.c ****   /* Check the parameters */
 128:Drivers/STM32F0xx_HAL_Driver/Src/stm32f0xx_hal_crc.c ****   assert_param(IS_CRC_ALL_INSTANCE(hcrc->Instance));
 129:Drivers/STM32F0xx_HAL_Driver/Src/stm32f0xx_hal_crc.c **** 
 130:Drivers/STM32F0xx_HAL_Driver/Src/stm32f0xx_hal_crc.c ****   if(hcrc->State == HAL_CRC_STATE_RESET)
 131:Drivers/STM32F0xx_HAL_Driver/Src/stm32f0xx_hal_crc.c ****   {   
 132:Drivers/STM32F0xx_HAL_Driver/Src/stm32f0xx_hal_crc.c ****     /* Allocate lock resource and initialize it */
 133:Drivers/STM32F0xx_HAL_Driver/Src/stm32f0xx_hal_crc.c ****     hcrc->Lock = HAL_UNLOCKED;
 134:Drivers/STM32F0xx_HAL_Driver/Src/stm32f0xx_hal_crc.c **** 
 135:Drivers/STM32F0xx_HAL_Driver/Src/stm32f0xx_hal_crc.c ****     /* Init the low level hardware */
 136:Drivers/STM32F0xx_HAL_Driver/Src/stm32f0xx_hal_crc.c ****     HAL_CRC_MspInit(hcrc);
 137:Drivers/STM32F0xx_HAL_Driver/Src/stm32f0xx_hal_crc.c ****   }
 138:Drivers/STM32F0xx_HAL_Driver/Src/stm32f0xx_hal_crc.c ****   
 139:Drivers/STM32F0xx_HAL_Driver/Src/stm32f0xx_hal_crc.c ****   hcrc->State = HAL_CRC_STATE_BUSY; 
 140:Drivers/STM32F0xx_HAL_Driver/Src/stm32f0xx_hal_crc.c ****   
 141:Drivers/STM32F0xx_HAL_Driver/Src/stm32f0xx_hal_crc.c ****   /* Extended initialization: if programmable polynomial feature is 
 142:Drivers/STM32F0xx_HAL_Driver/Src/stm32f0xx_hal_crc.c ****      applicable to device, set default or non-default generating 
 143:Drivers/STM32F0xx_HAL_Driver/Src/stm32f0xx_hal_crc.c ****      polynomial according to hcrc->Init parameters.
 144:Drivers/STM32F0xx_HAL_Driver/Src/stm32f0xx_hal_crc.c ****      If feature is non-applicable to device in use, HAL_CRCEx_Init straight 
 145:Drivers/STM32F0xx_HAL_Driver/Src/stm32f0xx_hal_crc.c ****      away reports HAL_OK. */
 146:Drivers/STM32F0xx_HAL_Driver/Src/stm32f0xx_hal_crc.c ****   if (HAL_CRCEx_Init(hcrc) != HAL_OK)
ARM GAS  /tmp/ccMc6RPV.s 			page 4


 147:Drivers/STM32F0xx_HAL_Driver/Src/stm32f0xx_hal_crc.c ****   {
 148:Drivers/STM32F0xx_HAL_Driver/Src/stm32f0xx_hal_crc.c ****     return HAL_ERROR;
 149:Drivers/STM32F0xx_HAL_Driver/Src/stm32f0xx_hal_crc.c ****   }
 150:Drivers/STM32F0xx_HAL_Driver/Src/stm32f0xx_hal_crc.c ****   
 151:Drivers/STM32F0xx_HAL_Driver/Src/stm32f0xx_hal_crc.c ****   /* check whether or not non-default CRC initial value has been 
 152:Drivers/STM32F0xx_HAL_Driver/Src/stm32f0xx_hal_crc.c ****    * picked up by user */
 153:Drivers/STM32F0xx_HAL_Driver/Src/stm32f0xx_hal_crc.c ****   assert_param(IS_DEFAULT_INIT_VALUE(hcrc->Init.DefaultInitValueUse));
 154:Drivers/STM32F0xx_HAL_Driver/Src/stm32f0xx_hal_crc.c ****   if (hcrc->Init.DefaultInitValueUse == DEFAULT_INIT_VALUE_ENABLE)
 155:Drivers/STM32F0xx_HAL_Driver/Src/stm32f0xx_hal_crc.c ****   {
 156:Drivers/STM32F0xx_HAL_Driver/Src/stm32f0xx_hal_crc.c ****     WRITE_REG(hcrc->Instance->INIT, DEFAULT_CRC_INITVALUE);  
 157:Drivers/STM32F0xx_HAL_Driver/Src/stm32f0xx_hal_crc.c ****   }
 158:Drivers/STM32F0xx_HAL_Driver/Src/stm32f0xx_hal_crc.c ****   else
 159:Drivers/STM32F0xx_HAL_Driver/Src/stm32f0xx_hal_crc.c ****   {
 160:Drivers/STM32F0xx_HAL_Driver/Src/stm32f0xx_hal_crc.c ****     WRITE_REG(hcrc->Instance->INIT, hcrc->Init.InitValue);
 161:Drivers/STM32F0xx_HAL_Driver/Src/stm32f0xx_hal_crc.c ****   }
 162:Drivers/STM32F0xx_HAL_Driver/Src/stm32f0xx_hal_crc.c ****   
 163:Drivers/STM32F0xx_HAL_Driver/Src/stm32f0xx_hal_crc.c **** 
 164:Drivers/STM32F0xx_HAL_Driver/Src/stm32f0xx_hal_crc.c ****   /* set input data inversion mode */
 165:Drivers/STM32F0xx_HAL_Driver/Src/stm32f0xx_hal_crc.c ****   assert_param(IS_CRC_INPUTDATA_INVERSION_MODE(hcrc->Init.InputDataInversionMode)); 
 166:Drivers/STM32F0xx_HAL_Driver/Src/stm32f0xx_hal_crc.c ****   MODIFY_REG(hcrc->Instance->CR, CRC_CR_REV_IN, hcrc->Init.InputDataInversionMode); 
 167:Drivers/STM32F0xx_HAL_Driver/Src/stm32f0xx_hal_crc.c ****   
 168:Drivers/STM32F0xx_HAL_Driver/Src/stm32f0xx_hal_crc.c ****   /* set output data inversion mode */
 169:Drivers/STM32F0xx_HAL_Driver/Src/stm32f0xx_hal_crc.c ****   assert_param(IS_CRC_OUTPUTDATA_INVERSION_MODE(hcrc->Init.OutputDataInversionMode)); 
 170:Drivers/STM32F0xx_HAL_Driver/Src/stm32f0xx_hal_crc.c ****   MODIFY_REG(hcrc->Instance->CR, CRC_CR_REV_OUT, hcrc->Init.OutputDataInversionMode);  
 171:Drivers/STM32F0xx_HAL_Driver/Src/stm32f0xx_hal_crc.c ****   
 172:Drivers/STM32F0xx_HAL_Driver/Src/stm32f0xx_hal_crc.c ****   /* makes sure the input data format (bytes, halfwords or words stream)
 173:Drivers/STM32F0xx_HAL_Driver/Src/stm32f0xx_hal_crc.c ****    * is properly specified by user */
 174:Drivers/STM32F0xx_HAL_Driver/Src/stm32f0xx_hal_crc.c ****   assert_param(IS_CRC_INPUTDATA_FORMAT(hcrc->InputDataFormat));
 175:Drivers/STM32F0xx_HAL_Driver/Src/stm32f0xx_hal_crc.c **** 
 176:Drivers/STM32F0xx_HAL_Driver/Src/stm32f0xx_hal_crc.c ****   /* Change CRC peripheral state */
 177:Drivers/STM32F0xx_HAL_Driver/Src/stm32f0xx_hal_crc.c ****   hcrc->State = HAL_CRC_STATE_READY;
 178:Drivers/STM32F0xx_HAL_Driver/Src/stm32f0xx_hal_crc.c ****   
 179:Drivers/STM32F0xx_HAL_Driver/Src/stm32f0xx_hal_crc.c ****   /* Return function status */
 180:Drivers/STM32F0xx_HAL_Driver/Src/stm32f0xx_hal_crc.c ****   return HAL_OK;
 181:Drivers/STM32F0xx_HAL_Driver/Src/stm32f0xx_hal_crc.c **** }
 182:Drivers/STM32F0xx_HAL_Driver/Src/stm32f0xx_hal_crc.c **** 
 183:Drivers/STM32F0xx_HAL_Driver/Src/stm32f0xx_hal_crc.c **** /**
 184:Drivers/STM32F0xx_HAL_Driver/Src/stm32f0xx_hal_crc.c ****   * @brief  DeInitialize the CRC peripheral. 
 185:Drivers/STM32F0xx_HAL_Driver/Src/stm32f0xx_hal_crc.c ****   * @param  hcrc CRC handle
 186:Drivers/STM32F0xx_HAL_Driver/Src/stm32f0xx_hal_crc.c ****   * @retval HAL status
 187:Drivers/STM32F0xx_HAL_Driver/Src/stm32f0xx_hal_crc.c ****   */
 188:Drivers/STM32F0xx_HAL_Driver/Src/stm32f0xx_hal_crc.c **** HAL_StatusTypeDef HAL_CRC_DeInit(CRC_HandleTypeDef *hcrc)
 189:Drivers/STM32F0xx_HAL_Driver/Src/stm32f0xx_hal_crc.c **** { 
 190:Drivers/STM32F0xx_HAL_Driver/Src/stm32f0xx_hal_crc.c ****   /* Check the CRC handle allocation */
 191:Drivers/STM32F0xx_HAL_Driver/Src/stm32f0xx_hal_crc.c ****   if(hcrc == NULL)
 192:Drivers/STM32F0xx_HAL_Driver/Src/stm32f0xx_hal_crc.c ****   {
 193:Drivers/STM32F0xx_HAL_Driver/Src/stm32f0xx_hal_crc.c ****     return HAL_ERROR;
 194:Drivers/STM32F0xx_HAL_Driver/Src/stm32f0xx_hal_crc.c ****   }
 195:Drivers/STM32F0xx_HAL_Driver/Src/stm32f0xx_hal_crc.c ****   
 196:Drivers/STM32F0xx_HAL_Driver/Src/stm32f0xx_hal_crc.c ****   /* Check the parameters */
 197:Drivers/STM32F0xx_HAL_Driver/Src/stm32f0xx_hal_crc.c ****   assert_param(IS_CRC_ALL_INSTANCE(hcrc->Instance));
 198:Drivers/STM32F0xx_HAL_Driver/Src/stm32f0xx_hal_crc.c ****   
 199:Drivers/STM32F0xx_HAL_Driver/Src/stm32f0xx_hal_crc.c ****   /* Check the CRC peripheral state */
 200:Drivers/STM32F0xx_HAL_Driver/Src/stm32f0xx_hal_crc.c ****   if(hcrc->State == HAL_CRC_STATE_BUSY)
 201:Drivers/STM32F0xx_HAL_Driver/Src/stm32f0xx_hal_crc.c ****   {
 202:Drivers/STM32F0xx_HAL_Driver/Src/stm32f0xx_hal_crc.c ****     return HAL_BUSY;
 203:Drivers/STM32F0xx_HAL_Driver/Src/stm32f0xx_hal_crc.c ****   }
ARM GAS  /tmp/ccMc6RPV.s 			page 5


 204:Drivers/STM32F0xx_HAL_Driver/Src/stm32f0xx_hal_crc.c ****   
 205:Drivers/STM32F0xx_HAL_Driver/Src/stm32f0xx_hal_crc.c ****   /* Change CRC peripheral state */
 206:Drivers/STM32F0xx_HAL_Driver/Src/stm32f0xx_hal_crc.c ****   hcrc->State = HAL_CRC_STATE_BUSY;
 207:Drivers/STM32F0xx_HAL_Driver/Src/stm32f0xx_hal_crc.c ****   
 208:Drivers/STM32F0xx_HAL_Driver/Src/stm32f0xx_hal_crc.c ****   /* Reset CRC calculation unit */
 209:Drivers/STM32F0xx_HAL_Driver/Src/stm32f0xx_hal_crc.c ****   __HAL_CRC_DR_RESET(hcrc);
 210:Drivers/STM32F0xx_HAL_Driver/Src/stm32f0xx_hal_crc.c ****   
 211:Drivers/STM32F0xx_HAL_Driver/Src/stm32f0xx_hal_crc.c ****   /* Reset IDR register content */
 212:Drivers/STM32F0xx_HAL_Driver/Src/stm32f0xx_hal_crc.c ****   CLEAR_BIT(hcrc->Instance->IDR, CRC_IDR_IDR) ;
 213:Drivers/STM32F0xx_HAL_Driver/Src/stm32f0xx_hal_crc.c **** 
 214:Drivers/STM32F0xx_HAL_Driver/Src/stm32f0xx_hal_crc.c ****   /* DeInit the low level hardware */
 215:Drivers/STM32F0xx_HAL_Driver/Src/stm32f0xx_hal_crc.c ****   HAL_CRC_MspDeInit(hcrc);
 216:Drivers/STM32F0xx_HAL_Driver/Src/stm32f0xx_hal_crc.c **** 
 217:Drivers/STM32F0xx_HAL_Driver/Src/stm32f0xx_hal_crc.c ****   /* Change CRC peripheral state */
 218:Drivers/STM32F0xx_HAL_Driver/Src/stm32f0xx_hal_crc.c ****   hcrc->State = HAL_CRC_STATE_RESET;
 219:Drivers/STM32F0xx_HAL_Driver/Src/stm32f0xx_hal_crc.c **** 
 220:Drivers/STM32F0xx_HAL_Driver/Src/stm32f0xx_hal_crc.c ****   /* Process unlocked */
 221:Drivers/STM32F0xx_HAL_Driver/Src/stm32f0xx_hal_crc.c ****   __HAL_UNLOCK(hcrc);
 222:Drivers/STM32F0xx_HAL_Driver/Src/stm32f0xx_hal_crc.c **** 
 223:Drivers/STM32F0xx_HAL_Driver/Src/stm32f0xx_hal_crc.c ****   /* Return function status */
 224:Drivers/STM32F0xx_HAL_Driver/Src/stm32f0xx_hal_crc.c ****   return HAL_OK;
 225:Drivers/STM32F0xx_HAL_Driver/Src/stm32f0xx_hal_crc.c **** }
 226:Drivers/STM32F0xx_HAL_Driver/Src/stm32f0xx_hal_crc.c **** 
 227:Drivers/STM32F0xx_HAL_Driver/Src/stm32f0xx_hal_crc.c **** /**
 228:Drivers/STM32F0xx_HAL_Driver/Src/stm32f0xx_hal_crc.c ****   * @brief  Initializes the CRC MSP.
 229:Drivers/STM32F0xx_HAL_Driver/Src/stm32f0xx_hal_crc.c ****   * @param  hcrc CRC handle
 230:Drivers/STM32F0xx_HAL_Driver/Src/stm32f0xx_hal_crc.c ****   * @retval None
 231:Drivers/STM32F0xx_HAL_Driver/Src/stm32f0xx_hal_crc.c ****   */
 232:Drivers/STM32F0xx_HAL_Driver/Src/stm32f0xx_hal_crc.c **** __weak void HAL_CRC_MspInit(CRC_HandleTypeDef *hcrc)
 233:Drivers/STM32F0xx_HAL_Driver/Src/stm32f0xx_hal_crc.c **** {
 234:Drivers/STM32F0xx_HAL_Driver/Src/stm32f0xx_hal_crc.c ****   /* Prevent unused argument(s) compilation warning */
 235:Drivers/STM32F0xx_HAL_Driver/Src/stm32f0xx_hal_crc.c ****   UNUSED(hcrc);
 236:Drivers/STM32F0xx_HAL_Driver/Src/stm32f0xx_hal_crc.c **** 
 237:Drivers/STM32F0xx_HAL_Driver/Src/stm32f0xx_hal_crc.c ****   /* NOTE : This function should not be modified, when the callback is needed,
 238:Drivers/STM32F0xx_HAL_Driver/Src/stm32f0xx_hal_crc.c ****             the HAL_CRC_MspInit can be implemented in the user file
 239:Drivers/STM32F0xx_HAL_Driver/Src/stm32f0xx_hal_crc.c ****    */
 240:Drivers/STM32F0xx_HAL_Driver/Src/stm32f0xx_hal_crc.c **** }
 241:Drivers/STM32F0xx_HAL_Driver/Src/stm32f0xx_hal_crc.c **** 
 242:Drivers/STM32F0xx_HAL_Driver/Src/stm32f0xx_hal_crc.c **** /**
 243:Drivers/STM32F0xx_HAL_Driver/Src/stm32f0xx_hal_crc.c ****   * @brief  DeInitialize the CRC MSP.
 244:Drivers/STM32F0xx_HAL_Driver/Src/stm32f0xx_hal_crc.c ****   * @param  hcrc CRC handle
 245:Drivers/STM32F0xx_HAL_Driver/Src/stm32f0xx_hal_crc.c ****   * @retval None
 246:Drivers/STM32F0xx_HAL_Driver/Src/stm32f0xx_hal_crc.c ****   */
 247:Drivers/STM32F0xx_HAL_Driver/Src/stm32f0xx_hal_crc.c **** __weak void HAL_CRC_MspDeInit(CRC_HandleTypeDef *hcrc)
 248:Drivers/STM32F0xx_HAL_Driver/Src/stm32f0xx_hal_crc.c **** {
 249:Drivers/STM32F0xx_HAL_Driver/Src/stm32f0xx_hal_crc.c ****   /* Prevent unused argument(s) compilation warning */
 250:Drivers/STM32F0xx_HAL_Driver/Src/stm32f0xx_hal_crc.c ****   UNUSED(hcrc);
 251:Drivers/STM32F0xx_HAL_Driver/Src/stm32f0xx_hal_crc.c **** 
 252:Drivers/STM32F0xx_HAL_Driver/Src/stm32f0xx_hal_crc.c ****   /* NOTE : This function should not be modified, when the callback is needed,
 253:Drivers/STM32F0xx_HAL_Driver/Src/stm32f0xx_hal_crc.c ****             the HAL_CRC_MspDeInit can be implemented in the user file
 254:Drivers/STM32F0xx_HAL_Driver/Src/stm32f0xx_hal_crc.c ****    */
 255:Drivers/STM32F0xx_HAL_Driver/Src/stm32f0xx_hal_crc.c **** }
 256:Drivers/STM32F0xx_HAL_Driver/Src/stm32f0xx_hal_crc.c **** 
 257:Drivers/STM32F0xx_HAL_Driver/Src/stm32f0xx_hal_crc.c **** /**
 258:Drivers/STM32F0xx_HAL_Driver/Src/stm32f0xx_hal_crc.c ****   * @}
 259:Drivers/STM32F0xx_HAL_Driver/Src/stm32f0xx_hal_crc.c ****   */
 260:Drivers/STM32F0xx_HAL_Driver/Src/stm32f0xx_hal_crc.c **** 
ARM GAS  /tmp/ccMc6RPV.s 			page 6


 261:Drivers/STM32F0xx_HAL_Driver/Src/stm32f0xx_hal_crc.c **** /** @defgroup CRC_Exported_Functions_Group2 Peripheral Control functions 
 262:Drivers/STM32F0xx_HAL_Driver/Src/stm32f0xx_hal_crc.c ****  *  @brief    management functions. 
 263:Drivers/STM32F0xx_HAL_Driver/Src/stm32f0xx_hal_crc.c ****  *
 264:Drivers/STM32F0xx_HAL_Driver/Src/stm32f0xx_hal_crc.c **** @verbatim   
 265:Drivers/STM32F0xx_HAL_Driver/Src/stm32f0xx_hal_crc.c ****  ===============================================================================
 266:Drivers/STM32F0xx_HAL_Driver/Src/stm32f0xx_hal_crc.c ****                       ##### Peripheral Control functions #####
 267:Drivers/STM32F0xx_HAL_Driver/Src/stm32f0xx_hal_crc.c ****  ===============================================================================  
 268:Drivers/STM32F0xx_HAL_Driver/Src/stm32f0xx_hal_crc.c ****     [..]  This section provides functions allowing to:
 269:Drivers/STM32F0xx_HAL_Driver/Src/stm32f0xx_hal_crc.c ****       (+) compute the 7U, 8U, 16 or 32-bit CRC value of an 8U, 16 or 32-bit data buffer
 270:Drivers/STM32F0xx_HAL_Driver/Src/stm32f0xx_hal_crc.c ****           using the combination of the previous CRC value and the new one
 271:Drivers/STM32F0xx_HAL_Driver/Src/stm32f0xx_hal_crc.c ****           
 272:Drivers/STM32F0xx_HAL_Driver/Src/stm32f0xx_hal_crc.c ****        [..]  or
 273:Drivers/STM32F0xx_HAL_Driver/Src/stm32f0xx_hal_crc.c ****           
 274:Drivers/STM32F0xx_HAL_Driver/Src/stm32f0xx_hal_crc.c ****       (+) compute the 7U, 8U, 16 or 32-bit CRC value of an 8U, 16 or 32-bit data buffer
 275:Drivers/STM32F0xx_HAL_Driver/Src/stm32f0xx_hal_crc.c ****           independently of the previous CRC value.
 276:Drivers/STM32F0xx_HAL_Driver/Src/stm32f0xx_hal_crc.c **** 
 277:Drivers/STM32F0xx_HAL_Driver/Src/stm32f0xx_hal_crc.c **** @endverbatim
 278:Drivers/STM32F0xx_HAL_Driver/Src/stm32f0xx_hal_crc.c ****   * @{
 279:Drivers/STM32F0xx_HAL_Driver/Src/stm32f0xx_hal_crc.c ****   */
 280:Drivers/STM32F0xx_HAL_Driver/Src/stm32f0xx_hal_crc.c **** 
 281:Drivers/STM32F0xx_HAL_Driver/Src/stm32f0xx_hal_crc.c **** /**                  
 282:Drivers/STM32F0xx_HAL_Driver/Src/stm32f0xx_hal_crc.c ****   * @brief  Compute the 7, 8, 16 or 32-bit CRC value of an 8, 16 or 32-bit data buffer
 283:Drivers/STM32F0xx_HAL_Driver/Src/stm32f0xx_hal_crc.c ****   *         starting with the previously computed CRC as initialization value.
 284:Drivers/STM32F0xx_HAL_Driver/Src/stm32f0xx_hal_crc.c ****   * @param  hcrc CRC handle
 285:Drivers/STM32F0xx_HAL_Driver/Src/stm32f0xx_hal_crc.c ****   * @param  pBuffer pointer to the input data buffer, exact input data format is
 286:Drivers/STM32F0xx_HAL_Driver/Src/stm32f0xx_hal_crc.c ****   *         provided by hcrc->InputDataFormat.  
 287:Drivers/STM32F0xx_HAL_Driver/Src/stm32f0xx_hal_crc.c ****   * @param  BufferLength input data buffer length (number of bytes if pBuffer
 288:Drivers/STM32F0xx_HAL_Driver/Src/stm32f0xx_hal_crc.c ****   *         type is * uint8_t, number of half-words if pBuffer type is * uint16_t,
 289:Drivers/STM32F0xx_HAL_Driver/Src/stm32f0xx_hal_crc.c ****   *         number of words if pBuffer type is * uint32_t).
 290:Drivers/STM32F0xx_HAL_Driver/Src/stm32f0xx_hal_crc.c ****   * @note  By default, the API expects a uint32_t pointer as input buffer parameter.
 291:Drivers/STM32F0xx_HAL_Driver/Src/stm32f0xx_hal_crc.c ****   *        Input buffer pointers with other types simply need to be cast in uint32_t
 292:Drivers/STM32F0xx_HAL_Driver/Src/stm32f0xx_hal_crc.c ****   *        and the API will internally adjust its input data processing based on the
 293:Drivers/STM32F0xx_HAL_Driver/Src/stm32f0xx_hal_crc.c ****   *        handle field hcrc->InputDataFormat.
 294:Drivers/STM32F0xx_HAL_Driver/Src/stm32f0xx_hal_crc.c ****   * @retval uint32_t CRC (returned value LSBs for CRC shorter than 32 bits)
 295:Drivers/STM32F0xx_HAL_Driver/Src/stm32f0xx_hal_crc.c ****   */
 296:Drivers/STM32F0xx_HAL_Driver/Src/stm32f0xx_hal_crc.c **** uint32_t HAL_CRC_Accumulate(CRC_HandleTypeDef *hcrc, uint32_t pBuffer[], uint32_t BufferLength)
 297:Drivers/STM32F0xx_HAL_Driver/Src/stm32f0xx_hal_crc.c **** {
 298:Drivers/STM32F0xx_HAL_Driver/Src/stm32f0xx_hal_crc.c ****   uint32_t index = 0U; /* CRC input data buffer index */
 299:Drivers/STM32F0xx_HAL_Driver/Src/stm32f0xx_hal_crc.c ****   uint32_t temp = 0U;  /* CRC output (read from hcrc->Instance->DR register) */
 300:Drivers/STM32F0xx_HAL_Driver/Src/stm32f0xx_hal_crc.c ****   
 301:Drivers/STM32F0xx_HAL_Driver/Src/stm32f0xx_hal_crc.c ****   /* Process locked */
 302:Drivers/STM32F0xx_HAL_Driver/Src/stm32f0xx_hal_crc.c ****   __HAL_LOCK(hcrc); 
 303:Drivers/STM32F0xx_HAL_Driver/Src/stm32f0xx_hal_crc.c ****     
 304:Drivers/STM32F0xx_HAL_Driver/Src/stm32f0xx_hal_crc.c ****   /* Change CRC peripheral state */  
 305:Drivers/STM32F0xx_HAL_Driver/Src/stm32f0xx_hal_crc.c ****   hcrc->State = HAL_CRC_STATE_BUSY;
 306:Drivers/STM32F0xx_HAL_Driver/Src/stm32f0xx_hal_crc.c ****   
 307:Drivers/STM32F0xx_HAL_Driver/Src/stm32f0xx_hal_crc.c ****   switch (hcrc->InputDataFormat)
 308:Drivers/STM32F0xx_HAL_Driver/Src/stm32f0xx_hal_crc.c ****   {
 309:Drivers/STM32F0xx_HAL_Driver/Src/stm32f0xx_hal_crc.c ****     case CRC_INPUTDATA_FORMAT_WORDS:  
 310:Drivers/STM32F0xx_HAL_Driver/Src/stm32f0xx_hal_crc.c ****       /* Enter Data to the CRC calculator */
 311:Drivers/STM32F0xx_HAL_Driver/Src/stm32f0xx_hal_crc.c ****       for(index = 0U; index < BufferLength; index++)
 312:Drivers/STM32F0xx_HAL_Driver/Src/stm32f0xx_hal_crc.c ****       {
 313:Drivers/STM32F0xx_HAL_Driver/Src/stm32f0xx_hal_crc.c ****         hcrc->Instance->DR = pBuffer[index];
 314:Drivers/STM32F0xx_HAL_Driver/Src/stm32f0xx_hal_crc.c ****       }
 315:Drivers/STM32F0xx_HAL_Driver/Src/stm32f0xx_hal_crc.c ****       temp = hcrc->Instance->DR;
 316:Drivers/STM32F0xx_HAL_Driver/Src/stm32f0xx_hal_crc.c ****       break;
 317:Drivers/STM32F0xx_HAL_Driver/Src/stm32f0xx_hal_crc.c ****       
ARM GAS  /tmp/ccMc6RPV.s 			page 7


 318:Drivers/STM32F0xx_HAL_Driver/Src/stm32f0xx_hal_crc.c ****     case CRC_INPUTDATA_FORMAT_BYTES: 
 319:Drivers/STM32F0xx_HAL_Driver/Src/stm32f0xx_hal_crc.c ****       temp = CRC_Handle_8(hcrc, (uint8_t*)pBuffer, BufferLength);
 320:Drivers/STM32F0xx_HAL_Driver/Src/stm32f0xx_hal_crc.c ****       break;
 321:Drivers/STM32F0xx_HAL_Driver/Src/stm32f0xx_hal_crc.c ****       
 322:Drivers/STM32F0xx_HAL_Driver/Src/stm32f0xx_hal_crc.c ****     case CRC_INPUTDATA_FORMAT_HALFWORDS: 
 323:Drivers/STM32F0xx_HAL_Driver/Src/stm32f0xx_hal_crc.c ****       temp = CRC_Handle_16(hcrc, (uint16_t*)pBuffer, BufferLength);
 324:Drivers/STM32F0xx_HAL_Driver/Src/stm32f0xx_hal_crc.c ****       break;
 325:Drivers/STM32F0xx_HAL_Driver/Src/stm32f0xx_hal_crc.c ****       
 326:Drivers/STM32F0xx_HAL_Driver/Src/stm32f0xx_hal_crc.c ****     default:
 327:Drivers/STM32F0xx_HAL_Driver/Src/stm32f0xx_hal_crc.c ****       break;          
 328:Drivers/STM32F0xx_HAL_Driver/Src/stm32f0xx_hal_crc.c ****   }
 329:Drivers/STM32F0xx_HAL_Driver/Src/stm32f0xx_hal_crc.c ****   
 330:Drivers/STM32F0xx_HAL_Driver/Src/stm32f0xx_hal_crc.c ****   /* Change CRC peripheral state */    
 331:Drivers/STM32F0xx_HAL_Driver/Src/stm32f0xx_hal_crc.c ****   hcrc->State = HAL_CRC_STATE_READY; 
 332:Drivers/STM32F0xx_HAL_Driver/Src/stm32f0xx_hal_crc.c ****   
 333:Drivers/STM32F0xx_HAL_Driver/Src/stm32f0xx_hal_crc.c ****   /* Process unlocked */
 334:Drivers/STM32F0xx_HAL_Driver/Src/stm32f0xx_hal_crc.c ****   __HAL_UNLOCK(hcrc);
 335:Drivers/STM32F0xx_HAL_Driver/Src/stm32f0xx_hal_crc.c ****   
 336:Drivers/STM32F0xx_HAL_Driver/Src/stm32f0xx_hal_crc.c ****   /* Return the CRC computed value */ 
 337:Drivers/STM32F0xx_HAL_Driver/Src/stm32f0xx_hal_crc.c ****   return temp;
 338:Drivers/STM32F0xx_HAL_Driver/Src/stm32f0xx_hal_crc.c **** }
 339:Drivers/STM32F0xx_HAL_Driver/Src/stm32f0xx_hal_crc.c **** 
 340:Drivers/STM32F0xx_HAL_Driver/Src/stm32f0xx_hal_crc.c **** 
 341:Drivers/STM32F0xx_HAL_Driver/Src/stm32f0xx_hal_crc.c **** /**                  
 342:Drivers/STM32F0xx_HAL_Driver/Src/stm32f0xx_hal_crc.c ****   * @brief  Compute the 7, 8, 16 or 32-bit CRC value of an 8, 16 or 32-bit data buffer
 343:Drivers/STM32F0xx_HAL_Driver/Src/stm32f0xx_hal_crc.c ****   *         starting with hcrc->Instance->INIT as initialization value.
 344:Drivers/STM32F0xx_HAL_Driver/Src/stm32f0xx_hal_crc.c ****   * @param  hcrc CRC handle
 345:Drivers/STM32F0xx_HAL_Driver/Src/stm32f0xx_hal_crc.c ****   * @param  pBuffer pointer to the input data buffer, exact input data format is
 346:Drivers/STM32F0xx_HAL_Driver/Src/stm32f0xx_hal_crc.c ****   *         provided by hcrc->InputDataFormat.  
 347:Drivers/STM32F0xx_HAL_Driver/Src/stm32f0xx_hal_crc.c ****   * @param  BufferLength input data buffer length (number of bytes if pBuffer
 348:Drivers/STM32F0xx_HAL_Driver/Src/stm32f0xx_hal_crc.c ****   *         type is * uint8_t, number of half-words if pBuffer type is * uint16_t,
 349:Drivers/STM32F0xx_HAL_Driver/Src/stm32f0xx_hal_crc.c ****   *         number of words if pBuffer type is * uint32_t).
 350:Drivers/STM32F0xx_HAL_Driver/Src/stm32f0xx_hal_crc.c ****   * @note  By default, the API expects a uint32_t pointer as input buffer parameter.
 351:Drivers/STM32F0xx_HAL_Driver/Src/stm32f0xx_hal_crc.c ****   *        Input buffer pointers with other types simply need to be cast in uint32_t
 352:Drivers/STM32F0xx_HAL_Driver/Src/stm32f0xx_hal_crc.c ****   *        and the API will internally adjust its input data processing based on the
 353:Drivers/STM32F0xx_HAL_Driver/Src/stm32f0xx_hal_crc.c ****   *        handle field hcrc->InputDataFormat. 
 354:Drivers/STM32F0xx_HAL_Driver/Src/stm32f0xx_hal_crc.c ****   * @retval uint32_t CRC (returned value LSBs for CRC shorter than 32 bits)
 355:Drivers/STM32F0xx_HAL_Driver/Src/stm32f0xx_hal_crc.c ****   */  
 356:Drivers/STM32F0xx_HAL_Driver/Src/stm32f0xx_hal_crc.c **** uint32_t HAL_CRC_Calculate(CRC_HandleTypeDef *hcrc, uint32_t pBuffer[], uint32_t BufferLength)
 357:Drivers/STM32F0xx_HAL_Driver/Src/stm32f0xx_hal_crc.c **** {
 358:Drivers/STM32F0xx_HAL_Driver/Src/stm32f0xx_hal_crc.c ****   uint32_t index = 0U; /* CRC input data buffer index */
 359:Drivers/STM32F0xx_HAL_Driver/Src/stm32f0xx_hal_crc.c ****   uint32_t temp = 0U;  /* CRC output (read from hcrc->Instance->DR register) */
 360:Drivers/STM32F0xx_HAL_Driver/Src/stm32f0xx_hal_crc.c ****     
 361:Drivers/STM32F0xx_HAL_Driver/Src/stm32f0xx_hal_crc.c ****   /* Process locked */
 362:Drivers/STM32F0xx_HAL_Driver/Src/stm32f0xx_hal_crc.c ****   __HAL_LOCK(hcrc); 
 363:Drivers/STM32F0xx_HAL_Driver/Src/stm32f0xx_hal_crc.c ****   
 364:Drivers/STM32F0xx_HAL_Driver/Src/stm32f0xx_hal_crc.c ****   /* Change CRC peripheral state */  
 365:Drivers/STM32F0xx_HAL_Driver/Src/stm32f0xx_hal_crc.c ****   hcrc->State = HAL_CRC_STATE_BUSY;
 366:Drivers/STM32F0xx_HAL_Driver/Src/stm32f0xx_hal_crc.c ****   
 367:Drivers/STM32F0xx_HAL_Driver/Src/stm32f0xx_hal_crc.c ****   /* Reset CRC Calculation Unit (hcrc->Instance->INIT is 
 368:Drivers/STM32F0xx_HAL_Driver/Src/stm32f0xx_hal_crc.c ****   *  written in hcrc->Instance->DR) */
 369:Drivers/STM32F0xx_HAL_Driver/Src/stm32f0xx_hal_crc.c ****   __HAL_CRC_DR_RESET(hcrc);
 370:Drivers/STM32F0xx_HAL_Driver/Src/stm32f0xx_hal_crc.c ****   
 371:Drivers/STM32F0xx_HAL_Driver/Src/stm32f0xx_hal_crc.c ****   switch (hcrc->InputDataFormat)
 372:Drivers/STM32F0xx_HAL_Driver/Src/stm32f0xx_hal_crc.c ****   {
 373:Drivers/STM32F0xx_HAL_Driver/Src/stm32f0xx_hal_crc.c ****     case CRC_INPUTDATA_FORMAT_WORDS:  
 374:Drivers/STM32F0xx_HAL_Driver/Src/stm32f0xx_hal_crc.c ****       /* Enter 32-bit input data to the CRC calculator */
ARM GAS  /tmp/ccMc6RPV.s 			page 8


 375:Drivers/STM32F0xx_HAL_Driver/Src/stm32f0xx_hal_crc.c ****       for(index = 0U; index < BufferLength; index++)
 376:Drivers/STM32F0xx_HAL_Driver/Src/stm32f0xx_hal_crc.c ****       {
 377:Drivers/STM32F0xx_HAL_Driver/Src/stm32f0xx_hal_crc.c ****         hcrc->Instance->DR = pBuffer[index];
 378:Drivers/STM32F0xx_HAL_Driver/Src/stm32f0xx_hal_crc.c ****       }
 379:Drivers/STM32F0xx_HAL_Driver/Src/stm32f0xx_hal_crc.c ****       temp = hcrc->Instance->DR;
 380:Drivers/STM32F0xx_HAL_Driver/Src/stm32f0xx_hal_crc.c ****       break;
 381:Drivers/STM32F0xx_HAL_Driver/Src/stm32f0xx_hal_crc.c ****       
 382:Drivers/STM32F0xx_HAL_Driver/Src/stm32f0xx_hal_crc.c ****     case CRC_INPUTDATA_FORMAT_BYTES: 
 383:Drivers/STM32F0xx_HAL_Driver/Src/stm32f0xx_hal_crc.c ****       /* Specific 8-bit input data handling  */
 384:Drivers/STM32F0xx_HAL_Driver/Src/stm32f0xx_hal_crc.c ****       temp = CRC_Handle_8(hcrc, (uint8_t*)pBuffer, BufferLength);
 385:Drivers/STM32F0xx_HAL_Driver/Src/stm32f0xx_hal_crc.c ****       break;
 386:Drivers/STM32F0xx_HAL_Driver/Src/stm32f0xx_hal_crc.c ****       
 387:Drivers/STM32F0xx_HAL_Driver/Src/stm32f0xx_hal_crc.c ****     case CRC_INPUTDATA_FORMAT_HALFWORDS: 
 388:Drivers/STM32F0xx_HAL_Driver/Src/stm32f0xx_hal_crc.c ****       /* Specific 16-bit input data handling  */
 389:Drivers/STM32F0xx_HAL_Driver/Src/stm32f0xx_hal_crc.c ****       temp = CRC_Handle_16(hcrc, (uint16_t*)pBuffer, BufferLength);
 390:Drivers/STM32F0xx_HAL_Driver/Src/stm32f0xx_hal_crc.c ****       break;
 391:Drivers/STM32F0xx_HAL_Driver/Src/stm32f0xx_hal_crc.c ****       
 392:Drivers/STM32F0xx_HAL_Driver/Src/stm32f0xx_hal_crc.c ****     default:
 393:Drivers/STM32F0xx_HAL_Driver/Src/stm32f0xx_hal_crc.c ****       break;         
 394:Drivers/STM32F0xx_HAL_Driver/Src/stm32f0xx_hal_crc.c ****   }
 395:Drivers/STM32F0xx_HAL_Driver/Src/stm32f0xx_hal_crc.c **** 
 396:Drivers/STM32F0xx_HAL_Driver/Src/stm32f0xx_hal_crc.c ****   /* Change CRC peripheral state */    
 397:Drivers/STM32F0xx_HAL_Driver/Src/stm32f0xx_hal_crc.c ****   hcrc->State = HAL_CRC_STATE_READY; 
 398:Drivers/STM32F0xx_HAL_Driver/Src/stm32f0xx_hal_crc.c ****   
 399:Drivers/STM32F0xx_HAL_Driver/Src/stm32f0xx_hal_crc.c ****   /* Process unlocked */
 400:Drivers/STM32F0xx_HAL_Driver/Src/stm32f0xx_hal_crc.c ****   __HAL_UNLOCK(hcrc);
 401:Drivers/STM32F0xx_HAL_Driver/Src/stm32f0xx_hal_crc.c ****   
 402:Drivers/STM32F0xx_HAL_Driver/Src/stm32f0xx_hal_crc.c ****   /* Return the CRC computed value */ 
 403:Drivers/STM32F0xx_HAL_Driver/Src/stm32f0xx_hal_crc.c ****   return temp;
 404:Drivers/STM32F0xx_HAL_Driver/Src/stm32f0xx_hal_crc.c **** }
 405:Drivers/STM32F0xx_HAL_Driver/Src/stm32f0xx_hal_crc.c ****   
 406:Drivers/STM32F0xx_HAL_Driver/Src/stm32f0xx_hal_crc.c **** /**
 407:Drivers/STM32F0xx_HAL_Driver/Src/stm32f0xx_hal_crc.c ****   * @}
 408:Drivers/STM32F0xx_HAL_Driver/Src/stm32f0xx_hal_crc.c ****   */
 409:Drivers/STM32F0xx_HAL_Driver/Src/stm32f0xx_hal_crc.c **** 
 410:Drivers/STM32F0xx_HAL_Driver/Src/stm32f0xx_hal_crc.c **** /** @defgroup CRC_Exported_Functions_Group3 Peripheral State functions 
 411:Drivers/STM32F0xx_HAL_Driver/Src/stm32f0xx_hal_crc.c ****  *  @brief    Peripheral State functions. 
 412:Drivers/STM32F0xx_HAL_Driver/Src/stm32f0xx_hal_crc.c ****  *
 413:Drivers/STM32F0xx_HAL_Driver/Src/stm32f0xx_hal_crc.c **** @verbatim   
 414:Drivers/STM32F0xx_HAL_Driver/Src/stm32f0xx_hal_crc.c ****  ===============================================================================
 415:Drivers/STM32F0xx_HAL_Driver/Src/stm32f0xx_hal_crc.c ****                       ##### Peripheral State functions #####
 416:Drivers/STM32F0xx_HAL_Driver/Src/stm32f0xx_hal_crc.c ****  ===============================================================================  
 417:Drivers/STM32F0xx_HAL_Driver/Src/stm32f0xx_hal_crc.c ****     [..]
 418:Drivers/STM32F0xx_HAL_Driver/Src/stm32f0xx_hal_crc.c ****     This subsection permits to get in run-time the status of the peripheral.
 419:Drivers/STM32F0xx_HAL_Driver/Src/stm32f0xx_hal_crc.c **** 
 420:Drivers/STM32F0xx_HAL_Driver/Src/stm32f0xx_hal_crc.c **** @endverbatim
 421:Drivers/STM32F0xx_HAL_Driver/Src/stm32f0xx_hal_crc.c ****   * @{
 422:Drivers/STM32F0xx_HAL_Driver/Src/stm32f0xx_hal_crc.c ****   */
 423:Drivers/STM32F0xx_HAL_Driver/Src/stm32f0xx_hal_crc.c **** 
 424:Drivers/STM32F0xx_HAL_Driver/Src/stm32f0xx_hal_crc.c **** /**
 425:Drivers/STM32F0xx_HAL_Driver/Src/stm32f0xx_hal_crc.c ****   * @brief  Return the CRC handle state.
 426:Drivers/STM32F0xx_HAL_Driver/Src/stm32f0xx_hal_crc.c ****   * @param  hcrc CRC handle
 427:Drivers/STM32F0xx_HAL_Driver/Src/stm32f0xx_hal_crc.c ****   * @retval HAL state
 428:Drivers/STM32F0xx_HAL_Driver/Src/stm32f0xx_hal_crc.c ****   */
 429:Drivers/STM32F0xx_HAL_Driver/Src/stm32f0xx_hal_crc.c **** HAL_CRC_StateTypeDef HAL_CRC_GetState(CRC_HandleTypeDef *hcrc)
 430:Drivers/STM32F0xx_HAL_Driver/Src/stm32f0xx_hal_crc.c **** {
 431:Drivers/STM32F0xx_HAL_Driver/Src/stm32f0xx_hal_crc.c ****   /* Return CRC handle state */
ARM GAS  /tmp/ccMc6RPV.s 			page 9


 432:Drivers/STM32F0xx_HAL_Driver/Src/stm32f0xx_hal_crc.c ****   return hcrc->State;
 433:Drivers/STM32F0xx_HAL_Driver/Src/stm32f0xx_hal_crc.c **** }
 434:Drivers/STM32F0xx_HAL_Driver/Src/stm32f0xx_hal_crc.c **** 
 435:Drivers/STM32F0xx_HAL_Driver/Src/stm32f0xx_hal_crc.c **** /**
 436:Drivers/STM32F0xx_HAL_Driver/Src/stm32f0xx_hal_crc.c ****   * @}
 437:Drivers/STM32F0xx_HAL_Driver/Src/stm32f0xx_hal_crc.c ****   */
 438:Drivers/STM32F0xx_HAL_Driver/Src/stm32f0xx_hal_crc.c **** 
 439:Drivers/STM32F0xx_HAL_Driver/Src/stm32f0xx_hal_crc.c **** /**
 440:Drivers/STM32F0xx_HAL_Driver/Src/stm32f0xx_hal_crc.c ****   * @}
 441:Drivers/STM32F0xx_HAL_Driver/Src/stm32f0xx_hal_crc.c ****   */
 442:Drivers/STM32F0xx_HAL_Driver/Src/stm32f0xx_hal_crc.c **** 
 443:Drivers/STM32F0xx_HAL_Driver/Src/stm32f0xx_hal_crc.c **** /** @defgroup CRC_Private_Functions CRC Private Functions
 444:Drivers/STM32F0xx_HAL_Driver/Src/stm32f0xx_hal_crc.c ****   * @{
 445:Drivers/STM32F0xx_HAL_Driver/Src/stm32f0xx_hal_crc.c ****   */
 446:Drivers/STM32F0xx_HAL_Driver/Src/stm32f0xx_hal_crc.c **** 
 447:Drivers/STM32F0xx_HAL_Driver/Src/stm32f0xx_hal_crc.c **** /**             
 448:Drivers/STM32F0xx_HAL_Driver/Src/stm32f0xx_hal_crc.c ****   * @brief  Enter 8-bit input data to the CRC calculator.
 449:Drivers/STM32F0xx_HAL_Driver/Src/stm32f0xx_hal_crc.c ****   *         Specific data handling to optimize processing time.  
 450:Drivers/STM32F0xx_HAL_Driver/Src/stm32f0xx_hal_crc.c ****   * @param  hcrc CRC handle
 451:Drivers/STM32F0xx_HAL_Driver/Src/stm32f0xx_hal_crc.c ****   * @param  pBuffer pointer to the input data buffer
 452:Drivers/STM32F0xx_HAL_Driver/Src/stm32f0xx_hal_crc.c ****   * @param  BufferLength input data buffer length
 453:Drivers/STM32F0xx_HAL_Driver/Src/stm32f0xx_hal_crc.c ****   * @retval uint32_t CRC (returned value LSBs for CRC shorter than 32 bits)
 454:Drivers/STM32F0xx_HAL_Driver/Src/stm32f0xx_hal_crc.c ****   */
 455:Drivers/STM32F0xx_HAL_Driver/Src/stm32f0xx_hal_crc.c **** static uint32_t CRC_Handle_8(CRC_HandleTypeDef *hcrc, uint8_t pBuffer[], uint32_t BufferLength)
 456:Drivers/STM32F0xx_HAL_Driver/Src/stm32f0xx_hal_crc.c **** {
  27              		.loc 1 456 1 view -0
  28              		.cfi_startproc
  29              		@ args = 0, pretend = 0, frame = 0
  30              		@ frame_needed = 0, uses_anonymous_args = 0
  31              		.loc 1 456 1 is_stmt 0 view .LVU1
  32 0000 70B5     		push	{r4, r5, r6, lr}
  33              	.LCFI0:
  34              		.cfi_def_cfa_offset 16
  35              		.cfi_offset 4, -16
  36              		.cfi_offset 5, -12
  37              		.cfi_offset 6, -8
  38              		.cfi_offset 14, -4
 457:Drivers/STM32F0xx_HAL_Driver/Src/stm32f0xx_hal_crc.c ****   uint32_t i = 0U; /* input data buffer index */
  39              		.loc 1 457 3 is_stmt 1 view .LVU2
  40              	.LVL1:
 458:Drivers/STM32F0xx_HAL_Driver/Src/stm32f0xx_hal_crc.c ****   
 459:Drivers/STM32F0xx_HAL_Driver/Src/stm32f0xx_hal_crc.c ****    /* Processing time optimization: 4 bytes are entered in a row with a single word write,
 460:Drivers/STM32F0xx_HAL_Driver/Src/stm32f0xx_hal_crc.c ****     * last bytes must be carefully fed to the CRC calculator to ensure a correct type
 461:Drivers/STM32F0xx_HAL_Driver/Src/stm32f0xx_hal_crc.c ****     * handling by the IP */
 462:Drivers/STM32F0xx_HAL_Driver/Src/stm32f0xx_hal_crc.c ****    for(i = 0U; i < (BufferLength/4U); i++)
  41              		.loc 1 462 4 view .LVU3
  42              		.loc 1 462 10 is_stmt 0 view .LVU4
  43 0002 0025     		movs	r5, #0
  44              	.LVL2:
  45              	.L2:
  46              		.loc 1 462 16 is_stmt 1 discriminator 1 view .LVU5
  47              		.loc 1 462 33 is_stmt 0 discriminator 1 view .LVU6
  48 0004 9308     		lsrs	r3, r2, #2
  49              		.loc 1 462 4 discriminator 1 view .LVU7
  50 0006 AB42     		cmp	r3, r5
  51 0008 0FD9     		bls	.L7
 463:Drivers/STM32F0xx_HAL_Driver/Src/stm32f0xx_hal_crc.c ****    {
ARM GAS  /tmp/ccMc6RPV.s 			page 10


 464:Drivers/STM32F0xx_HAL_Driver/Src/stm32f0xx_hal_crc.c ****       hcrc->Instance->DR = ((uint32_t)pBuffer[4U*i]<<24U) | ((uint32_t)pBuffer[4U*i+1]<<16U) | ((ui
  52              		.loc 1 464 7 is_stmt 1 discriminator 3 view .LVU8
  53              		.loc 1 464 49 is_stmt 0 discriminator 3 view .LVU9
  54 000a AC00     		lsls	r4, r5, #2
  55              		.loc 1 464 46 discriminator 3 view .LVU10
  56 000c 0B5D     		ldrb	r3, [r1, r4]
  57              		.loc 1 464 52 discriminator 3 view .LVU11
  58 000e 1B06     		lsls	r3, r3, #24
  59              		.loc 1 464 79 discriminator 3 view .LVU12
  60 0010 0C19     		adds	r4, r1, r4
  61 0012 6678     		ldrb	r6, [r4, #1]
  62              		.loc 1 464 87 discriminator 3 view .LVU13
  63 0014 3604     		lsls	r6, r6, #16
  64              		.loc 1 464 59 discriminator 3 view .LVU14
  65 0016 3343     		orrs	r3, r6
  66              		.loc 1 464 114 discriminator 3 view .LVU15
  67 0018 A678     		ldrb	r6, [r4, #2]
  68              		.loc 1 464 122 discriminator 3 view .LVU16
  69 001a 3602     		lsls	r6, r6, #8
  70              		.loc 1 464 94 discriminator 3 view .LVU17
  71 001c 3343     		orrs	r3, r6
  72              		.loc 1 464 147 discriminator 3 view .LVU18
  73 001e E678     		ldrb	r6, [r4, #3]
  74              		.loc 1 464 11 discriminator 3 view .LVU19
  75 0020 0468     		ldr	r4, [r0]
  76              		.loc 1 464 128 discriminator 3 view .LVU20
  77 0022 3343     		orrs	r3, r6
  78              		.loc 1 464 26 discriminator 3 view .LVU21
  79 0024 2360     		str	r3, [r4]
 462:Drivers/STM32F0xx_HAL_Driver/Src/stm32f0xx_hal_crc.c ****    {
  80              		.loc 1 462 39 is_stmt 1 discriminator 3 view .LVU22
 462:Drivers/STM32F0xx_HAL_Driver/Src/stm32f0xx_hal_crc.c ****    {
  81              		.loc 1 462 40 is_stmt 0 discriminator 3 view .LVU23
  82 0026 0135     		adds	r5, r5, #1
  83              	.LVL3:
 462:Drivers/STM32F0xx_HAL_Driver/Src/stm32f0xx_hal_crc.c ****    {
  84              		.loc 1 462 40 discriminator 3 view .LVU24
  85 0028 ECE7     		b	.L2
  86              	.L7:
 465:Drivers/STM32F0xx_HAL_Driver/Src/stm32f0xx_hal_crc.c ****    }
 466:Drivers/STM32F0xx_HAL_Driver/Src/stm32f0xx_hal_crc.c ****    /* last bytes specific handling */
 467:Drivers/STM32F0xx_HAL_Driver/Src/stm32f0xx_hal_crc.c ****    if ((BufferLength%4U) != 0U)
  87              		.loc 1 467 4 is_stmt 1 view .LVU25
  88              		.loc 1 467 21 is_stmt 0 view .LVU26
  89 002a 0323     		movs	r3, #3
  90 002c 1C00     		movs	r4, r3
  91 002e 1440     		ands	r4, r2
  92              		.loc 1 467 7 view .LVU27
  93 0030 1342     		tst	r3, r2
  94 0032 05D0     		beq	.L4
 468:Drivers/STM32F0xx_HAL_Driver/Src/stm32f0xx_hal_crc.c ****    {
 469:Drivers/STM32F0xx_HAL_Driver/Src/stm32f0xx_hal_crc.c ****      if  (BufferLength%4U == 1U)
  95              		.loc 1 469 6 is_stmt 1 view .LVU28
  96              		.loc 1 469 10 is_stmt 0 view .LVU29
  97 0034 012C     		cmp	r4, #1
  98 0036 06D0     		beq	.L8
  99              	.LVL4:
ARM GAS  /tmp/ccMc6RPV.s 			page 11


 100              	.L5:
 470:Drivers/STM32F0xx_HAL_Driver/Src/stm32f0xx_hal_crc.c ****      {
 471:Drivers/STM32F0xx_HAL_Driver/Src/stm32f0xx_hal_crc.c ****        *(uint8_t volatile*) (&hcrc->Instance->DR) = pBuffer[4*i];
 472:Drivers/STM32F0xx_HAL_Driver/Src/stm32f0xx_hal_crc.c ****      }
 473:Drivers/STM32F0xx_HAL_Driver/Src/stm32f0xx_hal_crc.c ****      if  (BufferLength%4U == 2U)
 101              		.loc 1 473 6 is_stmt 1 view .LVU30
 102              		.loc 1 473 10 is_stmt 0 view .LVU31
 103 0038 022C     		cmp	r4, #2
 104 003a 09D0     		beq	.L9
 105              	.L6:
 474:Drivers/STM32F0xx_HAL_Driver/Src/stm32f0xx_hal_crc.c ****      {
 475:Drivers/STM32F0xx_HAL_Driver/Src/stm32f0xx_hal_crc.c ****        *(uint16_t volatile*) (&hcrc->Instance->DR) = ((uint32_t)pBuffer[4*i]<<8) | (uint32_t)pBuffe
 476:Drivers/STM32F0xx_HAL_Driver/Src/stm32f0xx_hal_crc.c ****      }
 477:Drivers/STM32F0xx_HAL_Driver/Src/stm32f0xx_hal_crc.c ****      if  (BufferLength%4U == 3U)
 106              		.loc 1 477 6 is_stmt 1 view .LVU32
 107              		.loc 1 477 10 is_stmt 0 view .LVU33
 108 003c 032C     		cmp	r4, #3
 109 003e 10D0     		beq	.L10
 110              	.LVL5:
 111              	.L4:
 478:Drivers/STM32F0xx_HAL_Driver/Src/stm32f0xx_hal_crc.c ****      {
 479:Drivers/STM32F0xx_HAL_Driver/Src/stm32f0xx_hal_crc.c ****        *(uint16_t volatile*) (&hcrc->Instance->DR) = ((uint32_t)pBuffer[4*i]<<8) | (uint32_t)pBuffe
 480:Drivers/STM32F0xx_HAL_Driver/Src/stm32f0xx_hal_crc.c ****        *(uint8_t volatile*) (&hcrc->Instance->DR) = pBuffer[4*i+2];       
 481:Drivers/STM32F0xx_HAL_Driver/Src/stm32f0xx_hal_crc.c ****      }
 482:Drivers/STM32F0xx_HAL_Driver/Src/stm32f0xx_hal_crc.c ****    }
 483:Drivers/STM32F0xx_HAL_Driver/Src/stm32f0xx_hal_crc.c ****   
 484:Drivers/STM32F0xx_HAL_Driver/Src/stm32f0xx_hal_crc.c ****   /* Return the CRC computed value */ 
 485:Drivers/STM32F0xx_HAL_Driver/Src/stm32f0xx_hal_crc.c ****   return hcrc->Instance->DR;
 112              		.loc 1 485 3 is_stmt 1 view .LVU34
 113              		.loc 1 485 14 is_stmt 0 view .LVU35
 114 0040 0368     		ldr	r3, [r0]
 115              		.loc 1 485 24 view .LVU36
 116 0042 1868     		ldr	r0, [r3]
 117              	.LVL6:
 486:Drivers/STM32F0xx_HAL_Driver/Src/stm32f0xx_hal_crc.c **** }
 118              		.loc 1 486 1 view .LVU37
 119              		@ sp needed
 120 0044 70BD     		pop	{r4, r5, r6, pc}
 121              	.LVL7:
 122              	.L8:
 471:Drivers/STM32F0xx_HAL_Driver/Src/stm32f0xx_hal_crc.c ****      }
 123              		.loc 1 471 8 is_stmt 1 view .LVU38
 471:Drivers/STM32F0xx_HAL_Driver/Src/stm32f0xx_hal_crc.c ****      }
 124              		.loc 1 471 62 is_stmt 0 view .LVU39
 125 0046 AB00     		lsls	r3, r5, #2
 471:Drivers/STM32F0xx_HAL_Driver/Src/stm32f0xx_hal_crc.c ****      }
 126              		.loc 1 471 60 view .LVU40
 127 0048 CB5C     		ldrb	r3, [r1, r3]
 471:Drivers/STM32F0xx_HAL_Driver/Src/stm32f0xx_hal_crc.c ****      }
 128              		.loc 1 471 51 view .LVU41
 129 004a 0268     		ldr	r2, [r0]
 130              	.LVL8:
 471:Drivers/STM32F0xx_HAL_Driver/Src/stm32f0xx_hal_crc.c ****      }
 131              		.loc 1 471 51 view .LVU42
 132 004c 1370     		strb	r3, [r2]
 133 004e F3E7     		b	.L5
 134              	.L9:
ARM GAS  /tmp/ccMc6RPV.s 			page 12


 475:Drivers/STM32F0xx_HAL_Driver/Src/stm32f0xx_hal_crc.c ****      }
 135              		.loc 1 475 8 is_stmt 1 view .LVU43
 475:Drivers/STM32F0xx_HAL_Driver/Src/stm32f0xx_hal_crc.c ****      }
 136              		.loc 1 475 74 is_stmt 0 view .LVU44
 137 0050 AA00     		lsls	r2, r5, #2
 475:Drivers/STM32F0xx_HAL_Driver/Src/stm32f0xx_hal_crc.c ****      }
 138              		.loc 1 475 72 view .LVU45
 139 0052 8B5C     		ldrb	r3, [r1, r2]
 475:Drivers/STM32F0xx_HAL_Driver/Src/stm32f0xx_hal_crc.c ****      }
 140              		.loc 1 475 77 view .LVU46
 141 0054 1B02     		lsls	r3, r3, #8
 475:Drivers/STM32F0xx_HAL_Driver/Src/stm32f0xx_hal_crc.c ****      }
 142              		.loc 1 475 101 view .LVU47
 143 0056 8A18     		adds	r2, r1, r2
 144 0058 5278     		ldrb	r2, [r2, #1]
 475:Drivers/STM32F0xx_HAL_Driver/Src/stm32f0xx_hal_crc.c ****      }
 145              		.loc 1 475 82 view .LVU48
 146 005a 1343     		orrs	r3, r2
 475:Drivers/STM32F0xx_HAL_Driver/Src/stm32f0xx_hal_crc.c ****      }
 147              		.loc 1 475 52 view .LVU49
 148 005c 0268     		ldr	r2, [r0]
 149 005e 1380     		strh	r3, [r2]
 150 0060 ECE7     		b	.L6
 151              	.L10:
 479:Drivers/STM32F0xx_HAL_Driver/Src/stm32f0xx_hal_crc.c ****        *(uint8_t volatile*) (&hcrc->Instance->DR) = pBuffer[4*i+2];       
 152              		.loc 1 479 8 is_stmt 1 view .LVU50
 479:Drivers/STM32F0xx_HAL_Driver/Src/stm32f0xx_hal_crc.c ****        *(uint8_t volatile*) (&hcrc->Instance->DR) = pBuffer[4*i+2];       
 153              		.loc 1 479 74 is_stmt 0 view .LVU51
 154 0062 AD00     		lsls	r5, r5, #2
 155              	.LVL9:
 479:Drivers/STM32F0xx_HAL_Driver/Src/stm32f0xx_hal_crc.c ****        *(uint8_t volatile*) (&hcrc->Instance->DR) = pBuffer[4*i+2];       
 156              		.loc 1 479 72 view .LVU52
 157 0064 4B5D     		ldrb	r3, [r1, r5]
 479:Drivers/STM32F0xx_HAL_Driver/Src/stm32f0xx_hal_crc.c ****        *(uint8_t volatile*) (&hcrc->Instance->DR) = pBuffer[4*i+2];       
 158              		.loc 1 479 77 view .LVU53
 159 0066 1B02     		lsls	r3, r3, #8
 479:Drivers/STM32F0xx_HAL_Driver/Src/stm32f0xx_hal_crc.c ****        *(uint8_t volatile*) (&hcrc->Instance->DR) = pBuffer[4*i+2];       
 160              		.loc 1 479 101 view .LVU54
 161 0068 4D19     		adds	r5, r1, r5
 162 006a 6A78     		ldrb	r2, [r5, #1]
 479:Drivers/STM32F0xx_HAL_Driver/Src/stm32f0xx_hal_crc.c ****        *(uint8_t volatile*) (&hcrc->Instance->DR) = pBuffer[4*i+2];       
 163              		.loc 1 479 82 view .LVU55
 164 006c 1343     		orrs	r3, r2
 479:Drivers/STM32F0xx_HAL_Driver/Src/stm32f0xx_hal_crc.c ****        *(uint8_t volatile*) (&hcrc->Instance->DR) = pBuffer[4*i+2];       
 165              		.loc 1 479 52 view .LVU56
 166 006e 0268     		ldr	r2, [r0]
 167 0070 1380     		strh	r3, [r2]
 480:Drivers/STM32F0xx_HAL_Driver/Src/stm32f0xx_hal_crc.c ****      }
 168              		.loc 1 480 8 is_stmt 1 view .LVU57
 480:Drivers/STM32F0xx_HAL_Driver/Src/stm32f0xx_hal_crc.c ****      }
 169              		.loc 1 480 60 is_stmt 0 view .LVU58
 170 0072 AB78     		ldrb	r3, [r5, #2]
 480:Drivers/STM32F0xx_HAL_Driver/Src/stm32f0xx_hal_crc.c ****      }
 171              		.loc 1 480 51 view .LVU59
 172 0074 0268     		ldr	r2, [r0]
 173 0076 1370     		strb	r3, [r2]
 174 0078 E2E7     		b	.L4
ARM GAS  /tmp/ccMc6RPV.s 			page 13


 175              		.cfi_endproc
 176              	.LFE44:
 178              		.section	.text.CRC_Handle_16,"ax",%progbits
 179              		.align	1
 180              		.syntax unified
 181              		.code	16
 182              		.thumb_func
 183              		.fpu softvfp
 185              	CRC_Handle_16:
 186              	.LVL10:
 187              	.LFB45:
 487:Drivers/STM32F0xx_HAL_Driver/Src/stm32f0xx_hal_crc.c **** 
 488:Drivers/STM32F0xx_HAL_Driver/Src/stm32f0xx_hal_crc.c **** 
 489:Drivers/STM32F0xx_HAL_Driver/Src/stm32f0xx_hal_crc.c **** 
 490:Drivers/STM32F0xx_HAL_Driver/Src/stm32f0xx_hal_crc.c **** /**             
 491:Drivers/STM32F0xx_HAL_Driver/Src/stm32f0xx_hal_crc.c ****   * @brief  Enter 16-bit input data to the CRC calculator.
 492:Drivers/STM32F0xx_HAL_Driver/Src/stm32f0xx_hal_crc.c ****   *         Specific data handling to optimize processing time.  
 493:Drivers/STM32F0xx_HAL_Driver/Src/stm32f0xx_hal_crc.c ****   * @param  hcrc CRC handle
 494:Drivers/STM32F0xx_HAL_Driver/Src/stm32f0xx_hal_crc.c ****   * @param  pBuffer pointer to the input data buffer
 495:Drivers/STM32F0xx_HAL_Driver/Src/stm32f0xx_hal_crc.c ****   * @param  BufferLength input data buffer length
 496:Drivers/STM32F0xx_HAL_Driver/Src/stm32f0xx_hal_crc.c ****   * @retval uint32_t CRC (returned value LSBs for CRC shorter than 32 bits)
 497:Drivers/STM32F0xx_HAL_Driver/Src/stm32f0xx_hal_crc.c ****   */  
 498:Drivers/STM32F0xx_HAL_Driver/Src/stm32f0xx_hal_crc.c **** static uint32_t CRC_Handle_16(CRC_HandleTypeDef *hcrc, uint16_t pBuffer[], uint32_t BufferLength)
 499:Drivers/STM32F0xx_HAL_Driver/Src/stm32f0xx_hal_crc.c **** {
 188              		.loc 1 499 1 is_stmt 1 view -0
 189              		.cfi_startproc
 190              		@ args = 0, pretend = 0, frame = 0
 191              		@ frame_needed = 0, uses_anonymous_args = 0
 192              		.loc 1 499 1 is_stmt 0 view .LVU61
 193 0000 70B5     		push	{r4, r5, r6, lr}
 194              	.LCFI1:
 195              		.cfi_def_cfa_offset 16
 196              		.cfi_offset 4, -16
 197              		.cfi_offset 5, -12
 198              		.cfi_offset 6, -8
 199              		.cfi_offset 14, -4
 500:Drivers/STM32F0xx_HAL_Driver/Src/stm32f0xx_hal_crc.c ****   uint32_t i = 0U;  /* input data buffer index */
 200              		.loc 1 500 3 is_stmt 1 view .LVU62
 201              	.LVL11:
 501:Drivers/STM32F0xx_HAL_Driver/Src/stm32f0xx_hal_crc.c ****   
 502:Drivers/STM32F0xx_HAL_Driver/Src/stm32f0xx_hal_crc.c ****   /* Processing time optimization: 2 HalfWords are entered in a row with a single word write,
 503:Drivers/STM32F0xx_HAL_Driver/Src/stm32f0xx_hal_crc.c ****    * in case of odd length, last HalfWord must be carefully fed to the CRC calculator to ensure 
 504:Drivers/STM32F0xx_HAL_Driver/Src/stm32f0xx_hal_crc.c ****    * a correct type handling by the IP */
 505:Drivers/STM32F0xx_HAL_Driver/Src/stm32f0xx_hal_crc.c ****   for(i = 0U; i < (BufferLength/2U); i++)
 202              		.loc 1 505 3 view .LVU63
 203              		.loc 1 505 9 is_stmt 0 view .LVU64
 204 0002 0025     		movs	r5, #0
 205              	.LVL12:
 206              	.L12:
 207              		.loc 1 505 15 is_stmt 1 discriminator 1 view .LVU65
 208              		.loc 1 505 32 is_stmt 0 discriminator 1 view .LVU66
 209 0004 5308     		lsrs	r3, r2, #1
 210              		.loc 1 505 3 discriminator 1 view .LVU67
 211 0006 AB42     		cmp	r3, r5
 212 0008 09D9     		bls	.L15
 506:Drivers/STM32F0xx_HAL_Driver/Src/stm32f0xx_hal_crc.c ****   {
 507:Drivers/STM32F0xx_HAL_Driver/Src/stm32f0xx_hal_crc.c ****     hcrc->Instance->DR = ((uint32_t)pBuffer[2U*i]<<16U) | (uint32_t)pBuffer[2U*i+1];     
ARM GAS  /tmp/ccMc6RPV.s 			page 14


 213              		.loc 1 507 5 is_stmt 1 discriminator 3 view .LVU68
 214              		.loc 1 507 44 is_stmt 0 discriminator 3 view .LVU69
 215 000a AC00     		lsls	r4, r5, #2
 216 000c 0B5B     		ldrh	r3, [r1, r4]
 217              		.loc 1 507 50 discriminator 3 view .LVU70
 218 000e 1B04     		lsls	r3, r3, #16
 219              		.loc 1 507 76 discriminator 3 view .LVU71
 220 0010 0C19     		adds	r4, r1, r4
 221 0012 6688     		ldrh	r6, [r4, #2]
 222              		.loc 1 507 9 discriminator 3 view .LVU72
 223 0014 0468     		ldr	r4, [r0]
 224              		.loc 1 507 57 discriminator 3 view .LVU73
 225 0016 3343     		orrs	r3, r6
 226              		.loc 1 507 24 discriminator 3 view .LVU74
 227 0018 2360     		str	r3, [r4]
 505:Drivers/STM32F0xx_HAL_Driver/Src/stm32f0xx_hal_crc.c ****   {
 228              		.loc 1 505 38 is_stmt 1 discriminator 3 view .LVU75
 505:Drivers/STM32F0xx_HAL_Driver/Src/stm32f0xx_hal_crc.c ****   {
 229              		.loc 1 505 39 is_stmt 0 discriminator 3 view .LVU76
 230 001a 0135     		adds	r5, r5, #1
 231              	.LVL13:
 505:Drivers/STM32F0xx_HAL_Driver/Src/stm32f0xx_hal_crc.c ****   {
 232              		.loc 1 505 39 discriminator 3 view .LVU77
 233 001c F2E7     		b	.L12
 234              	.L15:
 508:Drivers/STM32F0xx_HAL_Driver/Src/stm32f0xx_hal_crc.c ****   }
 509:Drivers/STM32F0xx_HAL_Driver/Src/stm32f0xx_hal_crc.c ****   if ((BufferLength%2U) != 0U)
 235              		.loc 1 509 3 is_stmt 1 view .LVU78
 236              		.loc 1 509 6 is_stmt 0 view .LVU79
 237 001e D307     		lsls	r3, r2, #31
 238 0020 03D5     		bpl	.L14
 510:Drivers/STM32F0xx_HAL_Driver/Src/stm32f0xx_hal_crc.c ****   {
 511:Drivers/STM32F0xx_HAL_Driver/Src/stm32f0xx_hal_crc.c ****        *(uint16_t volatile*) (&hcrc->Instance->DR) = pBuffer[2*i]; 
 239              		.loc 1 511 8 is_stmt 1 view .LVU80
 240              		.loc 1 511 61 is_stmt 0 view .LVU81
 241 0022 AD00     		lsls	r5, r5, #2
 242              	.LVL14:
 243              		.loc 1 511 61 view .LVU82
 244 0024 6B5A     		ldrh	r3, [r5, r1]
 245              		.loc 1 511 52 view .LVU83
 246 0026 0268     		ldr	r2, [r0]
 247              	.LVL15:
 248              		.loc 1 511 52 view .LVU84
 249 0028 1380     		strh	r3, [r2]
 250              	.L14:
 512:Drivers/STM32F0xx_HAL_Driver/Src/stm32f0xx_hal_crc.c ****   }
 513:Drivers/STM32F0xx_HAL_Driver/Src/stm32f0xx_hal_crc.c ****    
 514:Drivers/STM32F0xx_HAL_Driver/Src/stm32f0xx_hal_crc.c ****   /* Return the CRC computed value */ 
 515:Drivers/STM32F0xx_HAL_Driver/Src/stm32f0xx_hal_crc.c ****   return hcrc->Instance->DR;
 251              		.loc 1 515 3 is_stmt 1 view .LVU85
 252              		.loc 1 515 14 is_stmt 0 view .LVU86
 253 002a 0368     		ldr	r3, [r0]
 254              		.loc 1 515 24 view .LVU87
 255 002c 1868     		ldr	r0, [r3]
 256              	.LVL16:
 516:Drivers/STM32F0xx_HAL_Driver/Src/stm32f0xx_hal_crc.c **** }
 257              		.loc 1 516 1 view .LVU88
ARM GAS  /tmp/ccMc6RPV.s 			page 15


 258              		@ sp needed
 259 002e 70BD     		pop	{r4, r5, r6, pc}
 260              		.cfi_endproc
 261              	.LFE45:
 263              		.section	.text.HAL_CRC_MspInit,"ax",%progbits
 264              		.align	1
 265              		.weak	HAL_CRC_MspInit
 266              		.syntax unified
 267              		.code	16
 268              		.thumb_func
 269              		.fpu softvfp
 271              	HAL_CRC_MspInit:
 272              	.LVL17:
 273              	.LFB39:
 233:Drivers/STM32F0xx_HAL_Driver/Src/stm32f0xx_hal_crc.c ****   /* Prevent unused argument(s) compilation warning */
 274              		.loc 1 233 1 is_stmt 1 view -0
 275              		.cfi_startproc
 276              		@ args = 0, pretend = 0, frame = 0
 277              		@ frame_needed = 0, uses_anonymous_args = 0
 278              		@ link register save eliminated.
 235:Drivers/STM32F0xx_HAL_Driver/Src/stm32f0xx_hal_crc.c **** 
 279              		.loc 1 235 3 view .LVU90
 240:Drivers/STM32F0xx_HAL_Driver/Src/stm32f0xx_hal_crc.c **** 
 280              		.loc 1 240 1 is_stmt 0 view .LVU91
 281              		@ sp needed
 282 0000 7047     		bx	lr
 283              		.cfi_endproc
 284              	.LFE39:
 286              		.section	.text.HAL_CRC_Init,"ax",%progbits
 287              		.align	1
 288              		.global	HAL_CRC_Init
 289              		.syntax unified
 290              		.code	16
 291              		.thumb_func
 292              		.fpu softvfp
 294              	HAL_CRC_Init:
 295              	.LVL18:
 296              	.LFB37:
 120:Drivers/STM32F0xx_HAL_Driver/Src/stm32f0xx_hal_crc.c ****   /* Check the CRC handle allocation */
 297              		.loc 1 120 1 is_stmt 1 view -0
 298              		.cfi_startproc
 299              		@ args = 0, pretend = 0, frame = 0
 300              		@ frame_needed = 0, uses_anonymous_args = 0
 120:Drivers/STM32F0xx_HAL_Driver/Src/stm32f0xx_hal_crc.c ****   /* Check the CRC handle allocation */
 301              		.loc 1 120 1 is_stmt 0 view .LVU93
 302 0000 10B5     		push	{r4, lr}
 303              	.LCFI2:
 304              		.cfi_def_cfa_offset 8
 305              		.cfi_offset 4, -8
 306              		.cfi_offset 14, -4
 307 0002 041E     		subs	r4, r0, #0
 122:Drivers/STM32F0xx_HAL_Driver/Src/stm32f0xx_hal_crc.c ****   {
 308              		.loc 1 122 3 is_stmt 1 view .LVU94
 122:Drivers/STM32F0xx_HAL_Driver/Src/stm32f0xx_hal_crc.c ****   {
 309              		.loc 1 122 5 is_stmt 0 view .LVU95
 310 0004 29D0     		beq	.L22
 128:Drivers/STM32F0xx_HAL_Driver/Src/stm32f0xx_hal_crc.c **** 
ARM GAS  /tmp/ccMc6RPV.s 			page 16


 311              		.loc 1 128 3 is_stmt 1 view .LVU96
 130:Drivers/STM32F0xx_HAL_Driver/Src/stm32f0xx_hal_crc.c ****   {   
 312              		.loc 1 130 3 view .LVU97
 130:Drivers/STM32F0xx_HAL_Driver/Src/stm32f0xx_hal_crc.c ****   {   
 313              		.loc 1 130 10 is_stmt 0 view .LVU98
 314 0006 437F     		ldrb	r3, [r0, #29]
 130:Drivers/STM32F0xx_HAL_Driver/Src/stm32f0xx_hal_crc.c ****   {   
 315              		.loc 1 130 5 view .LVU99
 316 0008 002B     		cmp	r3, #0
 317 000a 1ED0     		beq	.L24
 318              	.LVL19:
 319              	.L19:
 139:Drivers/STM32F0xx_HAL_Driver/Src/stm32f0xx_hal_crc.c ****   
 320              		.loc 1 139 3 is_stmt 1 view .LVU100
 139:Drivers/STM32F0xx_HAL_Driver/Src/stm32f0xx_hal_crc.c ****   
 321              		.loc 1 139 15 is_stmt 0 view .LVU101
 322 000c 0223     		movs	r3, #2
 323 000e 6377     		strb	r3, [r4, #29]
 146:Drivers/STM32F0xx_HAL_Driver/Src/stm32f0xx_hal_crc.c ****   {
 324              		.loc 1 146 3 is_stmt 1 view .LVU102
 146:Drivers/STM32F0xx_HAL_Driver/Src/stm32f0xx_hal_crc.c ****   {
 325              		.loc 1 146 7 is_stmt 0 view .LVU103
 326 0010 2000     		movs	r0, r4
 327 0012 FFF7FEFF 		bl	HAL_CRCEx_Init
 328              	.LVL20:
 146:Drivers/STM32F0xx_HAL_Driver/Src/stm32f0xx_hal_crc.c ****   {
 329              		.loc 1 146 6 view .LVU104
 330 0016 0028     		cmp	r0, #0
 331 0018 21D1     		bne	.L23
 153:Drivers/STM32F0xx_HAL_Driver/Src/stm32f0xx_hal_crc.c ****   if (hcrc->Init.DefaultInitValueUse == DEFAULT_INIT_VALUE_ENABLE)
 332              		.loc 1 153 3 is_stmt 1 view .LVU105
 154:Drivers/STM32F0xx_HAL_Driver/Src/stm32f0xx_hal_crc.c ****   {
 333              		.loc 1 154 3 view .LVU106
 154:Drivers/STM32F0xx_HAL_Driver/Src/stm32f0xx_hal_crc.c ****   {
 334              		.loc 1 154 17 is_stmt 0 view .LVU107
 335 001a 6379     		ldrb	r3, [r4, #5]
 154:Drivers/STM32F0xx_HAL_Driver/Src/stm32f0xx_hal_crc.c ****   {
 336              		.loc 1 154 6 view .LVU108
 337 001c 002B     		cmp	r3, #0
 338 001e 18D1     		bne	.L20
 156:Drivers/STM32F0xx_HAL_Driver/Src/stm32f0xx_hal_crc.c ****   }
 339              		.loc 1 156 5 is_stmt 1 view .LVU109
 340 0020 2368     		ldr	r3, [r4]
 341 0022 0122     		movs	r2, #1
 342 0024 5242     		rsbs	r2, r2, #0
 343 0026 1A61     		str	r2, [r3, #16]
 344              	.L21:
 165:Drivers/STM32F0xx_HAL_Driver/Src/stm32f0xx_hal_crc.c ****   MODIFY_REG(hcrc->Instance->CR, CRC_CR_REV_IN, hcrc->Init.InputDataInversionMode); 
 345              		.loc 1 165 3 view .LVU110
 166:Drivers/STM32F0xx_HAL_Driver/Src/stm32f0xx_hal_crc.c ****   
 346              		.loc 1 166 3 view .LVU111
 347 0028 2268     		ldr	r2, [r4]
 348 002a 9368     		ldr	r3, [r2, #8]
 349 002c 6021     		movs	r1, #96
 350 002e 8B43     		bics	r3, r1
 351 0030 6169     		ldr	r1, [r4, #20]
 352 0032 0B43     		orrs	r3, r1
ARM GAS  /tmp/ccMc6RPV.s 			page 17


 353 0034 9360     		str	r3, [r2, #8]
 169:Drivers/STM32F0xx_HAL_Driver/Src/stm32f0xx_hal_crc.c ****   MODIFY_REG(hcrc->Instance->CR, CRC_CR_REV_OUT, hcrc->Init.OutputDataInversionMode);  
 354              		.loc 1 169 3 view .LVU112
 170:Drivers/STM32F0xx_HAL_Driver/Src/stm32f0xx_hal_crc.c ****   
 355              		.loc 1 170 3 view .LVU113
 356 0036 2268     		ldr	r2, [r4]
 357 0038 9368     		ldr	r3, [r2, #8]
 358 003a 8021     		movs	r1, #128
 359 003c 8B43     		bics	r3, r1
 360 003e A169     		ldr	r1, [r4, #24]
 361 0040 0B43     		orrs	r3, r1
 362 0042 9360     		str	r3, [r2, #8]
 174:Drivers/STM32F0xx_HAL_Driver/Src/stm32f0xx_hal_crc.c **** 
 363              		.loc 1 174 3 view .LVU114
 177:Drivers/STM32F0xx_HAL_Driver/Src/stm32f0xx_hal_crc.c ****   
 364              		.loc 1 177 3 view .LVU115
 177:Drivers/STM32F0xx_HAL_Driver/Src/stm32f0xx_hal_crc.c ****   
 365              		.loc 1 177 15 is_stmt 0 view .LVU116
 366 0044 0123     		movs	r3, #1
 367 0046 6377     		strb	r3, [r4, #29]
 180:Drivers/STM32F0xx_HAL_Driver/Src/stm32f0xx_hal_crc.c **** }
 368              		.loc 1 180 3 is_stmt 1 view .LVU117
 369              	.L18:
 181:Drivers/STM32F0xx_HAL_Driver/Src/stm32f0xx_hal_crc.c **** 
 370              		.loc 1 181 1 is_stmt 0 view .LVU118
 371              		@ sp needed
 372              	.LVL21:
 181:Drivers/STM32F0xx_HAL_Driver/Src/stm32f0xx_hal_crc.c **** 
 373              		.loc 1 181 1 view .LVU119
 374 0048 10BD     		pop	{r4, pc}
 375              	.LVL22:
 376              	.L24:
 133:Drivers/STM32F0xx_HAL_Driver/Src/stm32f0xx_hal_crc.c **** 
 377              		.loc 1 133 5 is_stmt 1 view .LVU120
 133:Drivers/STM32F0xx_HAL_Driver/Src/stm32f0xx_hal_crc.c **** 
 378              		.loc 1 133 16 is_stmt 0 view .LVU121
 379 004a 0377     		strb	r3, [r0, #28]
 136:Drivers/STM32F0xx_HAL_Driver/Src/stm32f0xx_hal_crc.c ****   }
 380              		.loc 1 136 5 is_stmt 1 view .LVU122
 381 004c FFF7FEFF 		bl	HAL_CRC_MspInit
 382              	.LVL23:
 136:Drivers/STM32F0xx_HAL_Driver/Src/stm32f0xx_hal_crc.c ****   }
 383              		.loc 1 136 5 is_stmt 0 view .LVU123
 384 0050 DCE7     		b	.L19
 385              	.L20:
 160:Drivers/STM32F0xx_HAL_Driver/Src/stm32f0xx_hal_crc.c ****   }
 386              		.loc 1 160 5 is_stmt 1 view .LVU124
 387 0052 2368     		ldr	r3, [r4]
 388 0054 2269     		ldr	r2, [r4, #16]
 389 0056 1A61     		str	r2, [r3, #16]
 390 0058 E6E7     		b	.L21
 391              	.LVL24:
 392              	.L22:
 124:Drivers/STM32F0xx_HAL_Driver/Src/stm32f0xx_hal_crc.c ****   }
 393              		.loc 1 124 12 is_stmt 0 view .LVU125
 394 005a 0120     		movs	r0, #1
 395              	.LVL25:
ARM GAS  /tmp/ccMc6RPV.s 			page 18


 124:Drivers/STM32F0xx_HAL_Driver/Src/stm32f0xx_hal_crc.c ****   }
 396              		.loc 1 124 12 view .LVU126
 397 005c F4E7     		b	.L18
 398              	.L23:
 148:Drivers/STM32F0xx_HAL_Driver/Src/stm32f0xx_hal_crc.c ****   }
 399              		.loc 1 148 12 view .LVU127
 400 005e 0120     		movs	r0, #1
 401 0060 F2E7     		b	.L18
 402              		.cfi_endproc
 403              	.LFE37:
 405              		.section	.text.HAL_CRC_MspDeInit,"ax",%progbits
 406              		.align	1
 407              		.weak	HAL_CRC_MspDeInit
 408              		.syntax unified
 409              		.code	16
 410              		.thumb_func
 411              		.fpu softvfp
 413              	HAL_CRC_MspDeInit:
 414              	.LVL26:
 415              	.LFB40:
 248:Drivers/STM32F0xx_HAL_Driver/Src/stm32f0xx_hal_crc.c ****   /* Prevent unused argument(s) compilation warning */
 416              		.loc 1 248 1 is_stmt 1 view -0
 417              		.cfi_startproc
 418              		@ args = 0, pretend = 0, frame = 0
 419              		@ frame_needed = 0, uses_anonymous_args = 0
 420              		@ link register save eliminated.
 250:Drivers/STM32F0xx_HAL_Driver/Src/stm32f0xx_hal_crc.c **** 
 421              		.loc 1 250 3 view .LVU129
 255:Drivers/STM32F0xx_HAL_Driver/Src/stm32f0xx_hal_crc.c **** 
 422              		.loc 1 255 1 is_stmt 0 view .LVU130
 423              		@ sp needed
 424 0000 7047     		bx	lr
 425              		.cfi_endproc
 426              	.LFE40:
 428              		.section	.text.HAL_CRC_DeInit,"ax",%progbits
 429              		.align	1
 430              		.global	HAL_CRC_DeInit
 431              		.syntax unified
 432              		.code	16
 433              		.thumb_func
 434              		.fpu softvfp
 436              	HAL_CRC_DeInit:
 437              	.LVL27:
 438              	.LFB38:
 189:Drivers/STM32F0xx_HAL_Driver/Src/stm32f0xx_hal_crc.c ****   /* Check the CRC handle allocation */
 439              		.loc 1 189 1 is_stmt 1 view -0
 440              		.cfi_startproc
 441              		@ args = 0, pretend = 0, frame = 0
 442              		@ frame_needed = 0, uses_anonymous_args = 0
 189:Drivers/STM32F0xx_HAL_Driver/Src/stm32f0xx_hal_crc.c ****   /* Check the CRC handle allocation */
 443              		.loc 1 189 1 is_stmt 0 view .LVU132
 444 0000 70B5     		push	{r4, r5, r6, lr}
 445              	.LCFI3:
 446              		.cfi_def_cfa_offset 16
 447              		.cfi_offset 4, -16
 448              		.cfi_offset 5, -12
 449              		.cfi_offset 6, -8
ARM GAS  /tmp/ccMc6RPV.s 			page 19


 450              		.cfi_offset 14, -4
 451 0002 041E     		subs	r4, r0, #0
 191:Drivers/STM32F0xx_HAL_Driver/Src/stm32f0xx_hal_crc.c ****   {
 452              		.loc 1 191 3 is_stmt 1 view .LVU133
 191:Drivers/STM32F0xx_HAL_Driver/Src/stm32f0xx_hal_crc.c ****   {
 453              		.loc 1 191 5 is_stmt 0 view .LVU134
 454 0004 15D0     		beq	.L28
 197:Drivers/STM32F0xx_HAL_Driver/Src/stm32f0xx_hal_crc.c ****   
 455              		.loc 1 197 3 is_stmt 1 view .LVU135
 200:Drivers/STM32F0xx_HAL_Driver/Src/stm32f0xx_hal_crc.c ****   {
 456              		.loc 1 200 3 view .LVU136
 200:Drivers/STM32F0xx_HAL_Driver/Src/stm32f0xx_hal_crc.c ****   {
 457              		.loc 1 200 10 is_stmt 0 view .LVU137
 458 0006 437F     		ldrb	r3, [r0, #29]
 459 0008 D8B2     		uxtb	r0, r3
 460              	.LVL28:
 200:Drivers/STM32F0xx_HAL_Driver/Src/stm32f0xx_hal_crc.c ****   {
 461              		.loc 1 200 5 view .LVU138
 462 000a 022B     		cmp	r3, #2
 463 000c 10D0     		beq	.L27
 206:Drivers/STM32F0xx_HAL_Driver/Src/stm32f0xx_hal_crc.c ****   
 464              		.loc 1 206 3 is_stmt 1 view .LVU139
 206:Drivers/STM32F0xx_HAL_Driver/Src/stm32f0xx_hal_crc.c ****   
 465              		.loc 1 206 15 is_stmt 0 view .LVU140
 466 000e 0223     		movs	r3, #2
 467 0010 6377     		strb	r3, [r4, #29]
 209:Drivers/STM32F0xx_HAL_Driver/Src/stm32f0xx_hal_crc.c ****   
 468              		.loc 1 209 3 is_stmt 1 view .LVU141
 469 0012 2268     		ldr	r2, [r4]
 470 0014 9368     		ldr	r3, [r2, #8]
 471 0016 0121     		movs	r1, #1
 472 0018 0B43     		orrs	r3, r1
 473 001a 9360     		str	r3, [r2, #8]
 212:Drivers/STM32F0xx_HAL_Driver/Src/stm32f0xx_hal_crc.c **** 
 474              		.loc 1 212 3 view .LVU142
 475 001c 2368     		ldr	r3, [r4]
 476 001e 1A79     		ldrb	r2, [r3, #4]
 477 0020 0025     		movs	r5, #0
 478 0022 1D71     		strb	r5, [r3, #4]
 215:Drivers/STM32F0xx_HAL_Driver/Src/stm32f0xx_hal_crc.c **** 
 479              		.loc 1 215 3 view .LVU143
 480 0024 2000     		movs	r0, r4
 481 0026 FFF7FEFF 		bl	HAL_CRC_MspDeInit
 482              	.LVL29:
 218:Drivers/STM32F0xx_HAL_Driver/Src/stm32f0xx_hal_crc.c **** 
 483              		.loc 1 218 3 view .LVU144
 218:Drivers/STM32F0xx_HAL_Driver/Src/stm32f0xx_hal_crc.c **** 
 484              		.loc 1 218 15 is_stmt 0 view .LVU145
 485 002a 6577     		strb	r5, [r4, #29]
 221:Drivers/STM32F0xx_HAL_Driver/Src/stm32f0xx_hal_crc.c **** 
 486              		.loc 1 221 3 is_stmt 1 view .LVU146
 221:Drivers/STM32F0xx_HAL_Driver/Src/stm32f0xx_hal_crc.c **** 
 487              		.loc 1 221 3 view .LVU147
 488 002c 2577     		strb	r5, [r4, #28]
 221:Drivers/STM32F0xx_HAL_Driver/Src/stm32f0xx_hal_crc.c **** 
 489              		.loc 1 221 3 view .LVU148
 224:Drivers/STM32F0xx_HAL_Driver/Src/stm32f0xx_hal_crc.c **** }
ARM GAS  /tmp/ccMc6RPV.s 			page 20


 490              		.loc 1 224 3 view .LVU149
 224:Drivers/STM32F0xx_HAL_Driver/Src/stm32f0xx_hal_crc.c **** }
 491              		.loc 1 224 10 is_stmt 0 view .LVU150
 492 002e 0020     		movs	r0, #0
 493              	.L27:
 225:Drivers/STM32F0xx_HAL_Driver/Src/stm32f0xx_hal_crc.c **** 
 494              		.loc 1 225 1 view .LVU151
 495              		@ sp needed
 496              	.LVL30:
 225:Drivers/STM32F0xx_HAL_Driver/Src/stm32f0xx_hal_crc.c **** 
 497              		.loc 1 225 1 view .LVU152
 498 0030 70BD     		pop	{r4, r5, r6, pc}
 499              	.LVL31:
 500              	.L28:
 193:Drivers/STM32F0xx_HAL_Driver/Src/stm32f0xx_hal_crc.c ****   }
 501              		.loc 1 193 12 view .LVU153
 502 0032 0120     		movs	r0, #1
 503              	.LVL32:
 193:Drivers/STM32F0xx_HAL_Driver/Src/stm32f0xx_hal_crc.c ****   }
 504              		.loc 1 193 12 view .LVU154
 505 0034 FCE7     		b	.L27
 506              		.cfi_endproc
 507              	.LFE38:
 509              		.section	.text.HAL_CRC_Accumulate,"ax",%progbits
 510              		.align	1
 511              		.global	HAL_CRC_Accumulate
 512              		.syntax unified
 513              		.code	16
 514              		.thumb_func
 515              		.fpu softvfp
 517              	HAL_CRC_Accumulate:
 518              	.LVL33:
 519              	.LFB41:
 297:Drivers/STM32F0xx_HAL_Driver/Src/stm32f0xx_hal_crc.c ****   uint32_t index = 0U; /* CRC input data buffer index */
 520              		.loc 1 297 1 is_stmt 1 view -0
 521              		.cfi_startproc
 522              		@ args = 0, pretend = 0, frame = 0
 523              		@ frame_needed = 0, uses_anonymous_args = 0
 297:Drivers/STM32F0xx_HAL_Driver/Src/stm32f0xx_hal_crc.c ****   uint32_t index = 0U; /* CRC input data buffer index */
 524              		.loc 1 297 1 is_stmt 0 view .LVU156
 525 0000 70B5     		push	{r4, r5, r6, lr}
 526              	.LCFI4:
 527              		.cfi_def_cfa_offset 16
 528              		.cfi_offset 4, -16
 529              		.cfi_offset 5, -12
 530              		.cfi_offset 6, -8
 531              		.cfi_offset 14, -4
 532 0002 0400     		movs	r4, r0
 298:Drivers/STM32F0xx_HAL_Driver/Src/stm32f0xx_hal_crc.c ****   uint32_t temp = 0U;  /* CRC output (read from hcrc->Instance->DR register) */
 533              		.loc 1 298 3 is_stmt 1 view .LVU157
 534              	.LVL34:
 299:Drivers/STM32F0xx_HAL_Driver/Src/stm32f0xx_hal_crc.c ****   
 535              		.loc 1 299 3 view .LVU158
 302:Drivers/STM32F0xx_HAL_Driver/Src/stm32f0xx_hal_crc.c ****     
 536              		.loc 1 302 3 view .LVU159
 302:Drivers/STM32F0xx_HAL_Driver/Src/stm32f0xx_hal_crc.c ****     
 537              		.loc 1 302 3 view .LVU160
ARM GAS  /tmp/ccMc6RPV.s 			page 21


 538 0004 037F     		ldrb	r3, [r0, #28]
 539 0006 012B     		cmp	r3, #1
 540 0008 22D0     		beq	.L36
 302:Drivers/STM32F0xx_HAL_Driver/Src/stm32f0xx_hal_crc.c ****     
 541              		.loc 1 302 3 discriminator 2 view .LVU161
 542 000a 0123     		movs	r3, #1
 543 000c 0377     		strb	r3, [r0, #28]
 302:Drivers/STM32F0xx_HAL_Driver/Src/stm32f0xx_hal_crc.c ****     
 544              		.loc 1 302 3 discriminator 2 view .LVU162
 305:Drivers/STM32F0xx_HAL_Driver/Src/stm32f0xx_hal_crc.c ****   
 545              		.loc 1 305 3 discriminator 2 view .LVU163
 305:Drivers/STM32F0xx_HAL_Driver/Src/stm32f0xx_hal_crc.c ****   
 546              		.loc 1 305 15 is_stmt 0 discriminator 2 view .LVU164
 547 000e 0133     		adds	r3, r3, #1
 548 0010 4377     		strb	r3, [r0, #29]
 307:Drivers/STM32F0xx_HAL_Driver/Src/stm32f0xx_hal_crc.c ****   {
 549              		.loc 1 307 3 is_stmt 1 discriminator 2 view .LVU165
 307:Drivers/STM32F0xx_HAL_Driver/Src/stm32f0xx_hal_crc.c ****   {
 550              		.loc 1 307 15 is_stmt 0 discriminator 2 view .LVU166
 551 0012 036A     		ldr	r3, [r0, #32]
 307:Drivers/STM32F0xx_HAL_Driver/Src/stm32f0xx_hal_crc.c ****   {
 552              		.loc 1 307 3 discriminator 2 view .LVU167
 553 0014 022B     		cmp	r3, #2
 554 0016 18D0     		beq	.L31
 307:Drivers/STM32F0xx_HAL_Driver/Src/stm32f0xx_hal_crc.c ****   {
 555              		.loc 1 307 3 view .LVU168
 556 0018 032B     		cmp	r3, #3
 557 001a 11D0     		beq	.L37
 558 001c 012B     		cmp	r3, #1
 559 001e 11D0     		beq	.L33
 560 0020 0020     		movs	r0, #0
 561              	.LVL35:
 562              	.L34:
 331:Drivers/STM32F0xx_HAL_Driver/Src/stm32f0xx_hal_crc.c ****   
 563              		.loc 1 331 3 is_stmt 1 view .LVU169
 331:Drivers/STM32F0xx_HAL_Driver/Src/stm32f0xx_hal_crc.c ****   
 564              		.loc 1 331 15 is_stmt 0 view .LVU170
 565 0022 0123     		movs	r3, #1
 566 0024 6377     		strb	r3, [r4, #29]
 334:Drivers/STM32F0xx_HAL_Driver/Src/stm32f0xx_hal_crc.c ****   
 567              		.loc 1 334 3 is_stmt 1 view .LVU171
 334:Drivers/STM32F0xx_HAL_Driver/Src/stm32f0xx_hal_crc.c ****   
 568              		.loc 1 334 3 view .LVU172
 569 0026 0023     		movs	r3, #0
 570 0028 2377     		strb	r3, [r4, #28]
 334:Drivers/STM32F0xx_HAL_Driver/Src/stm32f0xx_hal_crc.c ****   
 571              		.loc 1 334 3 view .LVU173
 337:Drivers/STM32F0xx_HAL_Driver/Src/stm32f0xx_hal_crc.c **** }
 572              		.loc 1 337 3 view .LVU174
 573              	.LVL36:
 574              	.L29:
 338:Drivers/STM32F0xx_HAL_Driver/Src/stm32f0xx_hal_crc.c **** 
 575              		.loc 1 338 1 is_stmt 0 view .LVU175
 576              		@ sp needed
 577              	.LVL37:
 338:Drivers/STM32F0xx_HAL_Driver/Src/stm32f0xx_hal_crc.c **** 
 578              		.loc 1 338 1 view .LVU176
ARM GAS  /tmp/ccMc6RPV.s 			page 22


 579 002a 70BD     		pop	{r4, r5, r6, pc}
 580              	.LVL38:
 581              	.L35:
 313:Drivers/STM32F0xx_HAL_Driver/Src/stm32f0xx_hal_crc.c ****       }
 582              		.loc 1 313 9 is_stmt 1 discriminator 3 view .LVU177
 313:Drivers/STM32F0xx_HAL_Driver/Src/stm32f0xx_hal_crc.c ****       }
 583              		.loc 1 313 13 is_stmt 0 discriminator 3 view .LVU178
 584 002c 2068     		ldr	r0, [r4]
 313:Drivers/STM32F0xx_HAL_Driver/Src/stm32f0xx_hal_crc.c ****       }
 585              		.loc 1 313 37 discriminator 3 view .LVU179
 586 002e 9D00     		lsls	r5, r3, #2
 587 0030 6D58     		ldr	r5, [r5, r1]
 313:Drivers/STM32F0xx_HAL_Driver/Src/stm32f0xx_hal_crc.c ****       }
 588              		.loc 1 313 28 discriminator 3 view .LVU180
 589 0032 0560     		str	r5, [r0]
 311:Drivers/STM32F0xx_HAL_Driver/Src/stm32f0xx_hal_crc.c ****       {
 590              		.loc 1 311 45 is_stmt 1 discriminator 3 view .LVU181
 311:Drivers/STM32F0xx_HAL_Driver/Src/stm32f0xx_hal_crc.c ****       {
 591              		.loc 1 311 50 is_stmt 0 discriminator 3 view .LVU182
 592 0034 0133     		adds	r3, r3, #1
 593              	.LVL39:
 594              	.L32:
 311:Drivers/STM32F0xx_HAL_Driver/Src/stm32f0xx_hal_crc.c ****       {
 595              		.loc 1 311 23 is_stmt 1 discriminator 1 view .LVU183
 311:Drivers/STM32F0xx_HAL_Driver/Src/stm32f0xx_hal_crc.c ****       {
 596              		.loc 1 311 7 is_stmt 0 discriminator 1 view .LVU184
 597 0036 9342     		cmp	r3, r2
 598 0038 F8D3     		bcc	.L35
 315:Drivers/STM32F0xx_HAL_Driver/Src/stm32f0xx_hal_crc.c ****       break;
 599              		.loc 1 315 7 is_stmt 1 view .LVU185
 315:Drivers/STM32F0xx_HAL_Driver/Src/stm32f0xx_hal_crc.c ****       break;
 600              		.loc 1 315 18 is_stmt 0 view .LVU186
 601 003a 2368     		ldr	r3, [r4]
 602              	.LVL40:
 315:Drivers/STM32F0xx_HAL_Driver/Src/stm32f0xx_hal_crc.c ****       break;
 603              		.loc 1 315 12 view .LVU187
 604 003c 1868     		ldr	r0, [r3]
 605              	.LVL41:
 316:Drivers/STM32F0xx_HAL_Driver/Src/stm32f0xx_hal_crc.c ****       
 606              		.loc 1 316 7 is_stmt 1 view .LVU188
 607 003e F0E7     		b	.L34
 608              	.LVL42:
 609              	.L37:
 307:Drivers/STM32F0xx_HAL_Driver/Src/stm32f0xx_hal_crc.c ****   {
 610              		.loc 1 307 3 is_stmt 0 view .LVU189
 611 0040 0023     		movs	r3, #0
 612 0042 F8E7     		b	.L32
 613              	.L33:
 319:Drivers/STM32F0xx_HAL_Driver/Src/stm32f0xx_hal_crc.c ****       break;
 614              		.loc 1 319 7 is_stmt 1 view .LVU190
 319:Drivers/STM32F0xx_HAL_Driver/Src/stm32f0xx_hal_crc.c ****       break;
 615              		.loc 1 319 14 is_stmt 0 view .LVU191
 616 0044 FFF7FEFF 		bl	CRC_Handle_8
 617              	.LVL43:
 320:Drivers/STM32F0xx_HAL_Driver/Src/stm32f0xx_hal_crc.c ****       
 618              		.loc 1 320 7 is_stmt 1 view .LVU192
 619 0048 EBE7     		b	.L34
ARM GAS  /tmp/ccMc6RPV.s 			page 23


 620              	.LVL44:
 621              	.L31:
 323:Drivers/STM32F0xx_HAL_Driver/Src/stm32f0xx_hal_crc.c ****       break;
 622              		.loc 1 323 7 view .LVU193
 323:Drivers/STM32F0xx_HAL_Driver/Src/stm32f0xx_hal_crc.c ****       break;
 623              		.loc 1 323 14 is_stmt 0 view .LVU194
 624 004a FFF7FEFF 		bl	CRC_Handle_16
 625              	.LVL45:
 324:Drivers/STM32F0xx_HAL_Driver/Src/stm32f0xx_hal_crc.c ****       
 626              		.loc 1 324 7 is_stmt 1 view .LVU195
 627 004e E8E7     		b	.L34
 628              	.LVL46:
 629              	.L36:
 302:Drivers/STM32F0xx_HAL_Driver/Src/stm32f0xx_hal_crc.c ****     
 630              		.loc 1 302 3 is_stmt 0 view .LVU196
 631 0050 0220     		movs	r0, #2
 632              	.LVL47:
 302:Drivers/STM32F0xx_HAL_Driver/Src/stm32f0xx_hal_crc.c ****     
 633              		.loc 1 302 3 view .LVU197
 634 0052 EAE7     		b	.L29
 635              		.cfi_endproc
 636              	.LFE41:
 638              		.section	.text.HAL_CRC_Calculate,"ax",%progbits
 639              		.align	1
 640              		.global	HAL_CRC_Calculate
 641              		.syntax unified
 642              		.code	16
 643              		.thumb_func
 644              		.fpu softvfp
 646              	HAL_CRC_Calculate:
 647              	.LVL48:
 648              	.LFB42:
 357:Drivers/STM32F0xx_HAL_Driver/Src/stm32f0xx_hal_crc.c ****   uint32_t index = 0U; /* CRC input data buffer index */
 649              		.loc 1 357 1 is_stmt 1 view -0
 650              		.cfi_startproc
 651              		@ args = 0, pretend = 0, frame = 0
 652              		@ frame_needed = 0, uses_anonymous_args = 0
 357:Drivers/STM32F0xx_HAL_Driver/Src/stm32f0xx_hal_crc.c ****   uint32_t index = 0U; /* CRC input data buffer index */
 653              		.loc 1 357 1 is_stmt 0 view .LVU199
 654 0000 70B5     		push	{r4, r5, r6, lr}
 655              	.LCFI5:
 656              		.cfi_def_cfa_offset 16
 657              		.cfi_offset 4, -16
 658              		.cfi_offset 5, -12
 659              		.cfi_offset 6, -8
 660              		.cfi_offset 14, -4
 661 0002 0400     		movs	r4, r0
 358:Drivers/STM32F0xx_HAL_Driver/Src/stm32f0xx_hal_crc.c ****   uint32_t temp = 0U;  /* CRC output (read from hcrc->Instance->DR register) */
 662              		.loc 1 358 3 is_stmt 1 view .LVU200
 663              	.LVL49:
 359:Drivers/STM32F0xx_HAL_Driver/Src/stm32f0xx_hal_crc.c ****     
 664              		.loc 1 359 3 view .LVU201
 362:Drivers/STM32F0xx_HAL_Driver/Src/stm32f0xx_hal_crc.c ****   
 665              		.loc 1 362 3 view .LVU202
 362:Drivers/STM32F0xx_HAL_Driver/Src/stm32f0xx_hal_crc.c ****   
 666              		.loc 1 362 3 view .LVU203
 667 0004 037F     		ldrb	r3, [r0, #28]
ARM GAS  /tmp/ccMc6RPV.s 			page 24


 668 0006 012B     		cmp	r3, #1
 669 0008 28D0     		beq	.L45
 362:Drivers/STM32F0xx_HAL_Driver/Src/stm32f0xx_hal_crc.c ****   
 670              		.loc 1 362 3 discriminator 2 view .LVU204
 671 000a 0125     		movs	r5, #1
 672 000c 0577     		strb	r5, [r0, #28]
 362:Drivers/STM32F0xx_HAL_Driver/Src/stm32f0xx_hal_crc.c ****   
 673              		.loc 1 362 3 discriminator 2 view .LVU205
 365:Drivers/STM32F0xx_HAL_Driver/Src/stm32f0xx_hal_crc.c ****   
 674              		.loc 1 365 3 discriminator 2 view .LVU206
 365:Drivers/STM32F0xx_HAL_Driver/Src/stm32f0xx_hal_crc.c ****   
 675              		.loc 1 365 15 is_stmt 0 discriminator 2 view .LVU207
 676 000e 0223     		movs	r3, #2
 677 0010 4377     		strb	r3, [r0, #29]
 369:Drivers/STM32F0xx_HAL_Driver/Src/stm32f0xx_hal_crc.c ****   
 678              		.loc 1 369 3 is_stmt 1 discriminator 2 view .LVU208
 679 0012 0068     		ldr	r0, [r0]
 680              	.LVL50:
 369:Drivers/STM32F0xx_HAL_Driver/Src/stm32f0xx_hal_crc.c ****   
 681              		.loc 1 369 3 is_stmt 0 discriminator 2 view .LVU209
 682 0014 8368     		ldr	r3, [r0, #8]
 683 0016 2B43     		orrs	r3, r5
 684 0018 8360     		str	r3, [r0, #8]
 371:Drivers/STM32F0xx_HAL_Driver/Src/stm32f0xx_hal_crc.c ****   {
 685              		.loc 1 371 3 is_stmt 1 discriminator 2 view .LVU210
 371:Drivers/STM32F0xx_HAL_Driver/Src/stm32f0xx_hal_crc.c ****   {
 686              		.loc 1 371 15 is_stmt 0 discriminator 2 view .LVU211
 687 001a 236A     		ldr	r3, [r4, #32]
 371:Drivers/STM32F0xx_HAL_Driver/Src/stm32f0xx_hal_crc.c ****   {
 688              		.loc 1 371 3 discriminator 2 view .LVU212
 689 001c 022B     		cmp	r3, #2
 690 001e 19D0     		beq	.L40
 371:Drivers/STM32F0xx_HAL_Driver/Src/stm32f0xx_hal_crc.c ****   {
 691              		.loc 1 371 3 view .LVU213
 692 0020 032B     		cmp	r3, #3
 693 0022 11D0     		beq	.L46
 694 0024 012B     		cmp	r3, #1
 695 0026 11D0     		beq	.L42
 696 0028 0020     		movs	r0, #0
 697              	.LVL51:
 698              	.L43:
 397:Drivers/STM32F0xx_HAL_Driver/Src/stm32f0xx_hal_crc.c ****   
 699              		.loc 1 397 3 is_stmt 1 view .LVU214
 397:Drivers/STM32F0xx_HAL_Driver/Src/stm32f0xx_hal_crc.c ****   
 700              		.loc 1 397 15 is_stmt 0 view .LVU215
 701 002a 0123     		movs	r3, #1
 702 002c 6377     		strb	r3, [r4, #29]
 400:Drivers/STM32F0xx_HAL_Driver/Src/stm32f0xx_hal_crc.c ****   
 703              		.loc 1 400 3 is_stmt 1 view .LVU216
 400:Drivers/STM32F0xx_HAL_Driver/Src/stm32f0xx_hal_crc.c ****   
 704              		.loc 1 400 3 view .LVU217
 705 002e 0023     		movs	r3, #0
 706 0030 2377     		strb	r3, [r4, #28]
 400:Drivers/STM32F0xx_HAL_Driver/Src/stm32f0xx_hal_crc.c ****   
 707              		.loc 1 400 3 view .LVU218
 403:Drivers/STM32F0xx_HAL_Driver/Src/stm32f0xx_hal_crc.c **** }
 708              		.loc 1 403 3 view .LVU219
ARM GAS  /tmp/ccMc6RPV.s 			page 25


 709              	.LVL52:
 710              	.L38:
 404:Drivers/STM32F0xx_HAL_Driver/Src/stm32f0xx_hal_crc.c ****   
 711              		.loc 1 404 1 is_stmt 0 view .LVU220
 712              		@ sp needed
 713              	.LVL53:
 404:Drivers/STM32F0xx_HAL_Driver/Src/stm32f0xx_hal_crc.c ****   
 714              		.loc 1 404 1 view .LVU221
 715 0032 70BD     		pop	{r4, r5, r6, pc}
 716              	.LVL54:
 717              	.L44:
 377:Drivers/STM32F0xx_HAL_Driver/Src/stm32f0xx_hal_crc.c ****       }
 718              		.loc 1 377 9 is_stmt 1 discriminator 3 view .LVU222
 377:Drivers/STM32F0xx_HAL_Driver/Src/stm32f0xx_hal_crc.c ****       }
 719              		.loc 1 377 13 is_stmt 0 discriminator 3 view .LVU223
 720 0034 2068     		ldr	r0, [r4]
 377:Drivers/STM32F0xx_HAL_Driver/Src/stm32f0xx_hal_crc.c ****       }
 721              		.loc 1 377 37 discriminator 3 view .LVU224
 722 0036 9D00     		lsls	r5, r3, #2
 723 0038 6D58     		ldr	r5, [r5, r1]
 377:Drivers/STM32F0xx_HAL_Driver/Src/stm32f0xx_hal_crc.c ****       }
 724              		.loc 1 377 28 discriminator 3 view .LVU225
 725 003a 0560     		str	r5, [r0]
 375:Drivers/STM32F0xx_HAL_Driver/Src/stm32f0xx_hal_crc.c ****       {
 726              		.loc 1 375 45 is_stmt 1 discriminator 3 view .LVU226
 375:Drivers/STM32F0xx_HAL_Driver/Src/stm32f0xx_hal_crc.c ****       {
 727              		.loc 1 375 50 is_stmt 0 discriminator 3 view .LVU227
 728 003c 0133     		adds	r3, r3, #1
 729              	.LVL55:
 730              	.L41:
 375:Drivers/STM32F0xx_HAL_Driver/Src/stm32f0xx_hal_crc.c ****       {
 731              		.loc 1 375 23 is_stmt 1 discriminator 1 view .LVU228
 375:Drivers/STM32F0xx_HAL_Driver/Src/stm32f0xx_hal_crc.c ****       {
 732              		.loc 1 375 7 is_stmt 0 discriminator 1 view .LVU229
 733 003e 9342     		cmp	r3, r2
 734 0040 F8D3     		bcc	.L44
 379:Drivers/STM32F0xx_HAL_Driver/Src/stm32f0xx_hal_crc.c ****       break;
 735              		.loc 1 379 7 is_stmt 1 view .LVU230
 379:Drivers/STM32F0xx_HAL_Driver/Src/stm32f0xx_hal_crc.c ****       break;
 736              		.loc 1 379 18 is_stmt 0 view .LVU231
 737 0042 2368     		ldr	r3, [r4]
 738              	.LVL56:
 379:Drivers/STM32F0xx_HAL_Driver/Src/stm32f0xx_hal_crc.c ****       break;
 739              		.loc 1 379 12 view .LVU232
 740 0044 1868     		ldr	r0, [r3]
 741              	.LVL57:
 380:Drivers/STM32F0xx_HAL_Driver/Src/stm32f0xx_hal_crc.c ****       
 742              		.loc 1 380 7 is_stmt 1 view .LVU233
 743 0046 F0E7     		b	.L43
 744              	.LVL58:
 745              	.L46:
 371:Drivers/STM32F0xx_HAL_Driver/Src/stm32f0xx_hal_crc.c ****   {
 746              		.loc 1 371 3 is_stmt 0 view .LVU234
 747 0048 0023     		movs	r3, #0
 748 004a F8E7     		b	.L41
 749              	.L42:
 384:Drivers/STM32F0xx_HAL_Driver/Src/stm32f0xx_hal_crc.c ****       break;
ARM GAS  /tmp/ccMc6RPV.s 			page 26


 750              		.loc 1 384 7 is_stmt 1 view .LVU235
 384:Drivers/STM32F0xx_HAL_Driver/Src/stm32f0xx_hal_crc.c ****       break;
 751              		.loc 1 384 14 is_stmt 0 view .LVU236
 752 004c 2000     		movs	r0, r4
 753 004e FFF7FEFF 		bl	CRC_Handle_8
 754              	.LVL59:
 385:Drivers/STM32F0xx_HAL_Driver/Src/stm32f0xx_hal_crc.c ****       
 755              		.loc 1 385 7 is_stmt 1 view .LVU237
 756 0052 EAE7     		b	.L43
 757              	.LVL60:
 758              	.L40:
 389:Drivers/STM32F0xx_HAL_Driver/Src/stm32f0xx_hal_crc.c ****       break;
 759              		.loc 1 389 7 view .LVU238
 389:Drivers/STM32F0xx_HAL_Driver/Src/stm32f0xx_hal_crc.c ****       break;
 760              		.loc 1 389 14 is_stmt 0 view .LVU239
 761 0054 2000     		movs	r0, r4
 762 0056 FFF7FEFF 		bl	CRC_Handle_16
 763              	.LVL61:
 390:Drivers/STM32F0xx_HAL_Driver/Src/stm32f0xx_hal_crc.c ****       
 764              		.loc 1 390 7 is_stmt 1 view .LVU240
 765 005a E6E7     		b	.L43
 766              	.LVL62:
 767              	.L45:
 362:Drivers/STM32F0xx_HAL_Driver/Src/stm32f0xx_hal_crc.c ****   
 768              		.loc 1 362 3 is_stmt 0 view .LVU241
 769 005c 0220     		movs	r0, #2
 770              	.LVL63:
 362:Drivers/STM32F0xx_HAL_Driver/Src/stm32f0xx_hal_crc.c ****   
 771              		.loc 1 362 3 view .LVU242
 772 005e E8E7     		b	.L38
 773              		.cfi_endproc
 774              	.LFE42:
 776              		.section	.text.HAL_CRC_GetState,"ax",%progbits
 777              		.align	1
 778              		.global	HAL_CRC_GetState
 779              		.syntax unified
 780              		.code	16
 781              		.thumb_func
 782              		.fpu softvfp
 784              	HAL_CRC_GetState:
 785              	.LVL64:
 786              	.LFB43:
 430:Drivers/STM32F0xx_HAL_Driver/Src/stm32f0xx_hal_crc.c ****   /* Return CRC handle state */
 787              		.loc 1 430 1 is_stmt 1 view -0
 788              		.cfi_startproc
 789              		@ args = 0, pretend = 0, frame = 0
 790              		@ frame_needed = 0, uses_anonymous_args = 0
 791              		@ link register save eliminated.
 432:Drivers/STM32F0xx_HAL_Driver/Src/stm32f0xx_hal_crc.c **** }
 792              		.loc 1 432 3 view .LVU244
 432:Drivers/STM32F0xx_HAL_Driver/Src/stm32f0xx_hal_crc.c **** }
 793              		.loc 1 432 14 is_stmt 0 view .LVU245
 794 0000 407F     		ldrb	r0, [r0, #29]
 795              	.LVL65:
 432:Drivers/STM32F0xx_HAL_Driver/Src/stm32f0xx_hal_crc.c **** }
 796              		.loc 1 432 14 view .LVU246
 797 0002 C0B2     		uxtb	r0, r0
ARM GAS  /tmp/ccMc6RPV.s 			page 27


 433:Drivers/STM32F0xx_HAL_Driver/Src/stm32f0xx_hal_crc.c **** 
 798              		.loc 1 433 1 view .LVU247
 799              		@ sp needed
 800 0004 7047     		bx	lr
 801              		.cfi_endproc
 802              	.LFE43:
 804              		.text
 805              	.Letext0:
 806              		.file 2 "/usr/arm-none-eabi/include/machine/_default_types.h"
 807              		.file 3 "/usr/arm-none-eabi/include/sys/_stdint.h"
 808              		.file 4 "Drivers/CMSIS/Device/ST/STM32F0xx/Include/system_stm32f0xx.h"
 809              		.file 5 "Drivers/CMSIS/Device/ST/STM32F0xx/Include/stm32f042x6.h"
 810              		.file 6 "/usr/arm-none-eabi/include/sys/lock.h"
 811              		.file 7 "/usr/arm-none-eabi/include/sys/_types.h"
 812              		.file 8 "/usr/lib/gcc/arm-none-eabi/9.2.0/include/stddef.h"
 813              		.file 9 "/usr/arm-none-eabi/include/sys/reent.h"
 814              		.file 10 "Drivers/STM32F0xx_HAL_Driver/Inc/stm32f0xx_hal_def.h"
 815              		.file 11 "Drivers/STM32F0xx_HAL_Driver/Inc/stm32f0xx_hal_crc.h"
 816              		.file 12 "Drivers/STM32F0xx_HAL_Driver/Inc/stm32f0xx_hal_crc_ex.h"
ARM GAS  /tmp/ccMc6RPV.s 			page 28

